
========================================================================

** ELF Header Information

    File Name: .\obj\TIMER_Capture.axf

    Machine class: ELFCLASS32 (32-bit)
    Data encoding: ELFDATA2LSB (Little endian)
    Header version: EV_CURRENT (Current version)
    Operating System ABI: none
    ABI Version: 0
    File Type: ET_EXEC (Executable) (2)
    Machine: EM_ARM (ARM)

    Image Entry point: 0x0000012d
    Flags: EF_ARM_HASENTRY + EF_ARM_ABI_FLOAT_SOFT (0x05000202)

    ARM ELF revision: 5 (ABI version 2)

    Conforms to Soft float procedure-call standard

    Built with
    Component: ARM Compiler 5.06 update 6 (build 750) Tool: armasm [4d35ec]
    Component: ARM Compiler 5.06 update 6 (build 750) Tool: armlink [4d35ed]

    Header size: 52 bytes (0x34)
    Program header entry size: 32 bytes (0x20)
    Section header entry size: 40 bytes (0x28)

    Program header entries: 1
    Section header entries: 16

    Program header offset: 335324 (0x00051ddc)
    Section header offset: 335356 (0x00051dfc)

    Section header string table index: 15

========================================================================

** Program header #0 (PT_LOAD) [PF_X + PF_W + PF_R + PF_ARM_ENTRY]
    Size : 17012 bytes (14896 bytes in file)
    Virtual address: 0x00000000 (Alignment 8)


========================================================================

** Section #1 'ER_RO' (SHT_PROGBITS) [SHF_ALLOC + SHF_EXECINSTR]
    Size   : 12644 bytes (alignment 4)
    Address: 0x00000000

    $d.realdata
    RESET
    __Vectors
        0x00000000:    20001110    ...     DCD    536875280
        0x00000004:    0000012d    -...    DCD    301
        0x00000008:    0000014d    M...    DCD    333
        0x0000000c:    000000d5    ....    DCD    213
        0x00000010:    00000000    ....    DCD    0
        0x00000014:    00000000    ....    DCD    0
        0x00000018:    00000000    ....    DCD    0
        0x0000001c:    00000000    ....    DCD    0
        0x00000020:    00000000    ....    DCD    0
        0x00000024:    00000000    ....    DCD    0
        0x00000028:    00000000    ....    DCD    0
        0x0000002c:    00000151    Q...    DCD    337
        0x00000030:    00000000    ....    DCD    0
        0x00000034:    00000000    ....    DCD    0
        0x00000038:    00000153    S...    DCD    339
        0x0000003c:    00000155    U...    DCD    341
        0x00000040:    00000157    W...    DCD    343
        0x00000044:    00000157    W...    DCD    343
        0x00000048:    00000157    W...    DCD    343
        0x0000004c:    00000157    W...    DCD    343
        0x00000050:    00000157    W...    DCD    343
        0x00000054:    00000157    W...    DCD    343
        0x00000058:    00000157    W...    DCD    343
        0x0000005c:    00000157    W...    DCD    343
        0x00000060:    00000157    W...    DCD    343
        0x00000064:    00000157    W...    DCD    343
        0x00000068:    00000157    W...    DCD    343
        0x0000006c:    00000157    W...    DCD    343
        0x00000070:    00000157    W...    DCD    343
        0x00000074:    00000157    W...    DCD    343
        0x00000078:    00000157    W...    DCD    343
        0x0000007c:    00000157    W...    DCD    343
        0x00000080:    00000157    W...    DCD    343
        0x00000084:    00000157    W...    DCD    343
        0x00000088:    00000157    W...    DCD    343
        0x0000008c:    00000157    W...    DCD    343
        0x00000090:    00000157    W...    DCD    343
        0x00000094:    00000157    W...    DCD    343
        0x00000098:    00000157    W...    DCD    343
        0x0000009c:    00000157    W...    DCD    343
        0x000000a0:    00000157    W...    DCD    343
        0x000000a4:    00000157    W...    DCD    343
        0x000000a8:    00000157    W...    DCD    343
        0x000000ac:    00000157    W...    DCD    343
        0x000000b0:    00000157    W...    DCD    343
        0x000000b4:    000002ed    ....    DCD    749
        0x000000b8:    00000157    W...    DCD    343
        0x000000bc:    00000157    W...    DCD    343
    $t
    .ARM.Collect$$$$00000000
    .ARM.Collect$$$$00000001
    __main
    _main_stk
        0x000000c0:    4803        .H      LDR      r0,__lit__00000000 ; [0xd0] = 0x20001110
        0x000000c2:    4685        .F      MOV      sp,r0
    .ARM.Collect$$$$00000004
    _main_scatterload
        0x000000c4:    f000f8cc    ....    BL       __scatterload ; 0x260
    .ARM.Collect$$$$00000008
    .ARM.Collect$$$$0000000A
    .ARM.Collect$$$$0000000B
    __main_after_scatterload
    _main_clock
    _main_cpp_init
    _main_init
        0x000000c8:    4800        .H      LDR      r0,[pc,#0] ; [0xcc] = 0x11c5
        0x000000ca:    4700        .G      BX       r0
    $d
        0x000000cc:    000011c5    ....    DCD    4549
    .ARM.Collect$$$$00002712
    __lit__00000000
    .ARM.Collect$$$$0000000D
    .ARM.Collect$$$$0000000F
    __rt_final_cpp
    __rt_final_exit
        0x000000d0:    20001110    ...     DCD    536875280
    $t
    .emb_text
    HardFault_Handler
        0x000000d4:    4670        pF      MOV      r0,lr
        0x000000d6:    0740        @.      LSLS     r0,r0,#29
        0x000000d8:    d402        ..      BMI      0xe0 ; HardFault_Handler + 12
        0x000000da:    f3ef8008    ....    MRS      r0,MSP
        0x000000de:    e001        ..      B        0xe4 ; HardFault_Handler + 16
        0x000000e0:    f3ef8009    ....    MRS      r0,PSP
        0x000000e4:    6981        .i      LDR      r1,[r0,#0x18]
        0x000000e6:    880b        ..      LDRH     r3,[r1,#0]
        0x000000e8:    4a09        .J      LDR      r2,[pc,#36] ; [0x110] = 0xbeab
        0x000000ea:    4293        .B      CMP      r3,r2
        0x000000ec:    d102        ..      BNE      0xf4 ; HardFault_Handler + 32
        0x000000ee:    3104        .1      ADDS     r1,#4
        0x000000f0:    6181        .a      STR      r1,[r0,#0x18]
        0x000000f2:    4770        pG      BX       lr
        0x000000f4:    2004        .       MOVS     r0,#4
        0x000000f6:    4671        qF      MOV      r1,lr
        0x000000f8:    4208        .B      TST      r0,r1
        0x000000fa:    d002        ..      BEQ      0x102 ; HardFault_Handler + 46
        0x000000fc:    f3ef8009    ....    MRS      r0,PSP
        0x00000100:    e001        ..      B        0x106 ; HardFault_Handler + 50
        0x00000102:    f3ef8008    ....    MRS      r0,MSP
        0x00000106:    4671        qF      MOV      r1,lr
        0x00000108:    4a02        .J      LDR      r2,[pc,#8] ; [0x114] = 0x789
        0x0000010a:    4710        .G      BX       r2
        0x0000010c:    e7fe        ..      B        0x10c ; HardFault_Handler + 56
    $d
        0x0000010e:    0000        ..      DCW    0
        0x00000110:    0000beab    ....    DCD    48811
        0x00000114:    00000789    ....    DCD    1929
    $t
    SH_DoCommand
        0x00000118:    beab        ..      BKPT     #0xab
        0x0000011a:    e001        ..      B        0x120 ; SH_DoCommand + 8
        0x0000011c:    2000        .       MOVS     r0,#0
        0x0000011e:    4770        pG      BX       lr
        0x00000120:    2a00        .*      CMP      r2,#0
        0x00000122:    d000        ..      BEQ      0x126 ; SH_DoCommand + 14
        0x00000124:    6010        .`      STR      r0,[r2,#0]
        0x00000126:    2001        .       MOVS     r0,#1
        0x00000128:    4770        pG      BX       lr
        0x0000012a:    0000        ..      MOVS     r0,r0
    .text
    Reset_Handler
        0x0000012c:    480a        .H      LDR      r0,[pc,#40] ; [0x158] = 0x50000100
        0x0000012e:    490b        .I      LDR      r1,[pc,#44] ; [0x15c] = 0x59
        0x00000130:    6001        .`      STR      r1,[r0,#0]
        0x00000132:    490b        .I      LDR      r1,[pc,#44] ; [0x160] = 0x16
        0x00000134:    6001        .`      STR      r1,[r0,#0]
        0x00000136:    490b        .I      LDR      r1,[pc,#44] ; [0x164] = 0x88
        0x00000138:    6001        .`      STR      r1,[r0,#0]
        0x0000013a:    4a0b        .J      LDR      r2,[pc,#44] ; [0x168] = 0x50000024
        0x0000013c:    490b        .I      LDR      r1,[pc,#44] ; [0x16c] = 0x5aa5
        0x0000013e:    6011        .`      STR      r1,[r2,#0]
        0x00000140:    2100        .!      MOVS     r1,#0
        0x00000142:    6001        .`      STR      r1,[r0,#0]
        0x00000144:    480a        .H      LDR      r0,[pc,#40] ; [0x170] = 0xba9
        0x00000146:    4780        .G      BLX      r0
        0x00000148:    480a        .H      LDR      r0,[pc,#40] ; [0x174] = 0xc1
        0x0000014a:    4700        .G      BX       r0
    NMI_Handler
        0x0000014c:    e7fe        ..      B        NMI_Handler ; 0x14c
        0x0000014e:    e7fe        ..      B        0x14e ; NMI_Handler + 2
    SVC_Handler
        0x00000150:    e7fe        ..      B        SVC_Handler ; 0x150
    PendSV_Handler
        0x00000152:    e7fe        ..      B        PendSV_Handler ; 0x152
    SysTick_Handler
        0x00000154:    e7fe        ..      B        SysTick_Handler ; 0x154
    Default_Handler
    ACMP_IRQHandler
    BOD_IRQHandler
    CAN0_IRQHandler
    CAN1_IRQHandler
    EINT0_IRQHandler
    EINT1_IRQHandler
    GPAB_IRQHandler
    GPCDEF_IRQHandler
    I2C0_IRQHandler
    I2C1_IRQHandler
    I2S_IRQHandler
    PDMA_IRQHandler
    PS2_IRQHandler
    PWMA_IRQHandler
    PWMB_IRQHandler
    PWRWU_IRQHandler
    RTC_IRQHandler
    SC012_IRQHandler
    SPI0_IRQHandler
    SPI1_IRQHandler
    SPI2_IRQHandler
    SPI3_IRQHandler
    TMR0_IRQHandler
    TMR1_IRQHandler
    TMR2_IRQHandler
    TMR3_IRQHandler
    UART02_IRQHandler
    UART1_IRQHandler
    USBD_IRQHandler
    WDT_IRQHandler
        0x00000156:    e7fe        ..      B        Default_Handler ; 0x156
    $d
        0x00000158:    50000100    ...P    DCD    1342177536
        0x0000015c:    00000059    Y...    DCD    89
        0x00000160:    00000016    ....    DCD    22
        0x00000164:    00000088    ....    DCD    136
        0x00000168:    50000024    $..P    DCD    1342177316
        0x0000016c:    00005aa5    .Z..    DCD    23205
        0x00000170:    00000ba9    ....    DCD    2985
        0x00000174:    000000c1    ....    DCD    193
    $t
    .text
    __aeabi_uidiv
    __aeabi_uidivmod
        0x00000178:    b530        0.      PUSH     {r4,r5,lr}
        0x0000017a:    460b        .F      MOV      r3,r1
        0x0000017c:    4601        .F      MOV      r1,r0
        0x0000017e:    2000        .       MOVS     r0,#0
        0x00000180:    2220         "      MOVS     r2,#0x20
        0x00000182:    2401        .$      MOVS     r4,#1
        0x00000184:    e009        ..      B        0x19a ; __aeabi_uidiv + 34
        0x00000186:    460d        .F      MOV      r5,r1
        0x00000188:    40d5        .@      LSRS     r5,r5,r2
        0x0000018a:    429d        .B      CMP      r5,r3
        0x0000018c:    d305        ..      BCC      0x19a ; __aeabi_uidiv + 34
        0x0000018e:    461d        .F      MOV      r5,r3
        0x00000190:    4095        .@      LSLS     r5,r5,r2
        0x00000192:    1b49        I.      SUBS     r1,r1,r5
        0x00000194:    4625        %F      MOV      r5,r4
        0x00000196:    4095        .@      LSLS     r5,r5,r2
        0x00000198:    1940        @.      ADDS     r0,r0,r5
        0x0000019a:    4615        .F      MOV      r5,r2
        0x0000019c:    1e52        R.      SUBS     r2,r2,#1
        0x0000019e:    2d00        .-      CMP      r5,#0
        0x000001a0:    dcf1        ..      BGT      0x186 ; __aeabi_uidiv + 14
        0x000001a2:    bd30        0.      POP      {r4,r5,pc}
    .text
    __aeabi_idiv
    __aeabi_idivmod
        0x000001a4:    b570        p.      PUSH     {r4-r6,lr}
        0x000001a6:    2400        .$      MOVS     r4,#0
        0x000001a8:    4625        %F      MOV      r5,r4
        0x000001aa:    2800        .(      CMP      r0,#0
        0x000001ac:    da01        ..      BGE      0x1b2 ; __aeabi_idiv + 14
        0x000001ae:    2401        .$      MOVS     r4,#1
        0x000001b0:    4240        @B      RSBS     r0,r0,#0
        0x000001b2:    2900        .)      CMP      r1,#0
        0x000001b4:    da01        ..      BGE      0x1ba ; __aeabi_idiv + 22
        0x000001b6:    2501        .%      MOVS     r5,#1
        0x000001b8:    4249        IB      RSBS     r1,r1,#0
        0x000001ba:    f7ffffdd    ....    BL       __aeabi_uidiv ; 0x178
        0x000001be:    42ac        .B      CMP      r4,r5
        0x000001c0:    d000        ..      BEQ      0x1c4 ; __aeabi_idiv + 32
        0x000001c2:    4240        @B      RSBS     r0,r0,#0
        0x000001c4:    2c00        .,      CMP      r4,#0
        0x000001c6:    d000        ..      BEQ      0x1ca ; __aeabi_idiv + 38
        0x000001c8:    4249        IB      RSBS     r1,r1,#0
        0x000001ca:    bd70        p.      POP      {r4-r6,pc}
    .text
    __aeabi_memcpy
    __aeabi_memcpy4
    __aeabi_memcpy8
        0x000001cc:    4603        .F      MOV      r3,r0
        0x000001ce:    430b        .C      ORRS     r3,r3,r1
        0x000001d0:    079b        ..      LSLS     r3,r3,#30
        0x000001d2:    d003        ..      BEQ      0x1dc ; __aeabi_memcpy + 16
        0x000001d4:    e009        ..      B        0x1ea ; __aeabi_memcpy + 30
        0x000001d6:    c908        ..      LDM      r1!,{r3}
        0x000001d8:    1f12        ..      SUBS     r2,r2,#4
        0x000001da:    c008        ..      STM      r0!,{r3}
        0x000001dc:    2a04        .*      CMP      r2,#4
        0x000001de:    d2fa        ..      BCS      0x1d6 ; __aeabi_memcpy + 10
        0x000001e0:    e003        ..      B        0x1ea ; __aeabi_memcpy + 30
        0x000001e2:    780b        .x      LDRB     r3,[r1,#0]
        0x000001e4:    7003        .p      STRB     r3,[r0,#0]
        0x000001e6:    1c40        @.      ADDS     r0,r0,#1
        0x000001e8:    1c49        I.      ADDS     r1,r1,#1
        0x000001ea:    1e52        R.      SUBS     r2,r2,#1
        0x000001ec:    d2f9        ..      BCS      0x1e2 ; __aeabi_memcpy + 22
        0x000001ee:    4770        pG      BX       lr
    .text
    strlen
        0x000001f0:    1c42        B.      ADDS     r2,r0,#1
        0x000001f2:    7801        .x      LDRB     r1,[r0,#0]
        0x000001f4:    1c40        @.      ADDS     r0,r0,#1
        0x000001f6:    2900        .)      CMP      r1,#0
        0x000001f8:    d1fb        ..      BNE      0x1f2 ; strlen + 2
        0x000001fa:    1a80        ..      SUBS     r0,r0,r2
        0x000001fc:    4770        pG      BX       lr
    .text
    __aeabi_uldivmod
        0x000001fe:    b5f0        ..      PUSH     {r4-r7,lr}
        0x00000200:    b41f        ..      PUSH     {r0-r4}
        0x00000202:    4606        .F      MOV      r6,r0
        0x00000204:    2000        .       MOVS     r0,#0
        0x00000206:    b082        ..      SUB      sp,sp,#8
        0x00000208:    4605        .F      MOV      r5,r0
        0x0000020a:    2440        @$      MOVS     r4,#0x40
        0x0000020c:    9101        ..      STR      r1,[sp,#4]
        0x0000020e:    9000        ..      STR      r0,[sp,#0]
        0x00000210:    e01b        ..      B        0x24a ; __aeabi_uldivmod + 76
        0x00000212:    9901        ..      LDR      r1,[sp,#4]
        0x00000214:    4622        "F      MOV      r2,r4
        0x00000216:    460f        .F      MOV      r7,r1
        0x00000218:    4630        0F      MOV      r0,r6
        0x0000021a:    f000f843    ..C.    BL       __aeabi_llsr ; 0x2a4
        0x0000021e:    9a04        ..      LDR      r2,[sp,#0x10]
        0x00000220:    9b05        ..      LDR      r3,[sp,#0x14]
        0x00000222:    1a80        ..      SUBS     r0,r0,r2
        0x00000224:    4199        .A      SBCS     r1,r1,r3
        0x00000226:    d310        ..      BCC      0x24a ; __aeabi_uldivmod + 76
        0x00000228:    4610        .F      MOV      r0,r2
        0x0000022a:    4619        .F      MOV      r1,r3
        0x0000022c:    4622        "F      MOV      r2,r4
        0x0000022e:    f000f829    ..).    BL       __aeabi_llsl ; 0x284
        0x00000232:    1a36        6.      SUBS     r6,r6,r0
        0x00000234:    418f        .A      SBCS     r7,r7,r1
        0x00000236:    9701        ..      STR      r7,[sp,#4]
        0x00000238:    4622        "F      MOV      r2,r4
        0x0000023a:    2001        .       MOVS     r0,#1
        0x0000023c:    2100        .!      MOVS     r1,#0
        0x0000023e:    9f00        ..      LDR      r7,[sp,#0]
        0x00000240:    f000f820    .. .    BL       __aeabi_llsl ; 0x284
        0x00000244:    1838        8.      ADDS     r0,r7,r0
        0x00000246:    414d        MA      ADCS     r5,r5,r1
        0x00000248:    9000        ..      STR      r0,[sp,#0]
        0x0000024a:    4620         F      MOV      r0,r4
        0x0000024c:    1e64        d.      SUBS     r4,r4,#1
        0x0000024e:    2800        .(      CMP      r0,#0
        0x00000250:    dcdf        ..      BGT      0x212 ; __aeabi_uldivmod + 20
        0x00000252:    9b01        ..      LDR      r3,[sp,#4]
        0x00000254:    9800        ..      LDR      r0,[sp,#0]
        0x00000256:    4629        )F      MOV      r1,r5
        0x00000258:    4632        2F      MOV      r2,r6
        0x0000025a:    b007        ..      ADD      sp,sp,#0x1c
        0x0000025c:    bdf0        ..      POP      {r4-r7,pc}
        0x0000025e:    0000        ..      MOVS     r0,r0
    .text
    __scatterload
    __scatterload_rt2
        0x00000260:    4c06        .L      LDR      r4,[pc,#24] ; [0x27c] = 0x3144
        0x00000262:    2501        .%      MOVS     r5,#1
        0x00000264:    4e06        .N      LDR      r6,[pc,#24] ; [0x280] = 0x3164
        0x00000266:    e005        ..      B        0x274 ; __scatterload + 20
        0x00000268:    68e3        .h      LDR      r3,[r4,#0xc]
        0x0000026a:    cc07        ..      LDM      r4!,{r0-r2}
        0x0000026c:    432b        +C      ORRS     r3,r3,r5
        0x0000026e:    3c0c        .<      SUBS     r4,r4,#0xc
        0x00000270:    4798        .G      BLX      r3
        0x00000272:    3410        .4      ADDS     r4,r4,#0x10
        0x00000274:    42b4        .B      CMP      r4,r6
        0x00000276:    d3f7        ..      BCC      0x268 ; __scatterload + 8
        0x00000278:    f7ffff26    ..&.    BL       __main_after_scatterload ; 0xc8
    $d
        0x0000027c:    00003144    D1..    DCD    12612
        0x00000280:    00003164    d1..    DCD    12644
    $t
    .text
    __aeabi_llsl
    _ll_shift_l
        0x00000284:    b510        ..      PUSH     {r4,lr}
        0x00000286:    2a20         *      CMP      r2,#0x20
        0x00000288:    db04        ..      BLT      0x294 ; __aeabi_llsl + 16
        0x0000028a:    4601        .F      MOV      r1,r0
        0x0000028c:    3a20         :      SUBS     r2,r2,#0x20
        0x0000028e:    4091        .@      LSLS     r1,r1,r2
        0x00000290:    2000        .       MOVS     r0,#0
        0x00000292:    bd10        ..      POP      {r4,pc}
        0x00000294:    4091        .@      LSLS     r1,r1,r2
        0x00000296:    2320         #      MOVS     r3,#0x20
        0x00000298:    1a9c        ..      SUBS     r4,r3,r2
        0x0000029a:    4603        .F      MOV      r3,r0
        0x0000029c:    40e3        .@      LSRS     r3,r3,r4
        0x0000029e:    4319        .C      ORRS     r1,r1,r3
        0x000002a0:    4090        .@      LSLS     r0,r0,r2
        0x000002a2:    bd10        ..      POP      {r4,pc}
    .text
    __aeabi_llsr
    _ll_ushift_r
        0x000002a4:    b510        ..      PUSH     {r4,lr}
        0x000002a6:    2a20         *      CMP      r2,#0x20
        0x000002a8:    db04        ..      BLT      0x2b4 ; __aeabi_llsr + 16
        0x000002aa:    4608        .F      MOV      r0,r1
        0x000002ac:    3a20         :      SUBS     r2,r2,#0x20
        0x000002ae:    40d0        .@      LSRS     r0,r0,r2
        0x000002b0:    2100        .!      MOVS     r1,#0
        0x000002b2:    bd10        ..      POP      {r4,pc}
        0x000002b4:    460b        .F      MOV      r3,r1
        0x000002b6:    40d3        .@      LSRS     r3,r3,r2
        0x000002b8:    40d0        .@      LSRS     r0,r0,r2
        0x000002ba:    2420         $      MOVS     r4,#0x20
        0x000002bc:    1aa2        ..      SUBS     r2,r4,r2
        0x000002be:    4091        .@      LSLS     r1,r1,r2
        0x000002c0:    4308        .C      ORRS     r0,r0,r1
        0x000002c2:    4619        .F      MOV      r1,r3
        0x000002c4:    bd10        ..      POP      {r4,pc}
    i.ADC_EnableInt
    ADC_EnableInt
        0x000002c6:    07cb        ..      LSLS     r3,r1,#31
        0x000002c8:    2202        ."      MOVS     r2,#2
        0x000002ca:    2b00        .+      CMP      r3,#0
        0x000002cc:    d002        ..      BEQ      0x2d4 ; ADC_EnableInt + 14
        0x000002ce:    6a03        .j      LDR      r3,[r0,#0x20]
        0x000002d0:    4313        .C      ORRS     r3,r3,r2
        0x000002d2:    6203        .b      STR      r3,[r0,#0x20]
        0x000002d4:    078b        ..      LSLS     r3,r1,#30
        0x000002d6:    d502        ..      BPL      0x2de ; ADC_EnableInt + 24
        0x000002d8:    6a83        .j      LDR      r3,[r0,#0x28]
        0x000002da:    4313        .C      ORRS     r3,r3,r2
        0x000002dc:    6283        .b      STR      r3,[r0,#0x28]
        0x000002de:    0749        I.      LSLS     r1,r1,#29
        0x000002e0:    d502        ..      BPL      0x2e8 ; ADC_EnableInt + 34
        0x000002e2:    6ac1        .j      LDR      r1,[r0,#0x2c]
        0x000002e4:    4311        .C      ORRS     r1,r1,r2
        0x000002e6:    62c1        .b      STR      r1,[r0,#0x2c]
        0x000002e8:    4770        pG      BX       lr
        0x000002ea:    0000        ..      MOVS     r0,r0
    i.ADC_IRQHandler
    ADC_IRQHandler
        0x000002ec:    4906        .I      LDR      r1,[pc,#24] ; [0x308] = 0x400e0000
        0x000002ee:    6b08        .k      LDR      r0,[r1,#0x30]
        0x000002f0:    07c0        ..      LSLS     r0,r0,#31
        0x000002f2:    0fc0        ..      LSRS     r0,r0,#31
        0x000002f4:    07c2        ..      LSLS     r2,r0,#31
        0x000002f6:    d004        ..      BEQ      0x302 ; ADC_IRQHandler + 22
        0x000002f8:    680b        .h      LDR      r3,[r1,#0]
        0x000002fa:    4a04        .J      LDR      r2,[pc,#16] ; [0x30c] = 0x20000034
        0x000002fc:    8053        S.      STRH     r3,[r2,#2]
        0x000002fe:    684b        Kh      LDR      r3,[r1,#4]
        0x00000300:    8093        ..      STRH     r3,[r2,#4]
        0x00000302:    6308        .c      STR      r0,[r1,#0x30]
        0x00000304:    4770        pG      BX       lr
    $d
        0x00000306:    0000        ..      DCW    0
        0x00000308:    400e0000    ...@    DCD    1074659328
        0x0000030c:    20000034    4..     DCD    536870964
    $t
    i.ADC_Open
    ADC_Open
        0x00000310:    b530        0.      PUSH     {r4,r5,lr}
        0x00000312:    6a04        .j      LDR      r4,[r0,#0x20]
        0x00000314:    4d05        .M      LDR      r5,[pc,#20] ; [0x32c] = 0xfffffbf3
        0x00000316:    402c        ,@      ANDS     r4,r4,r5
        0x00000318:    430c        .C      ORRS     r4,r4,r1
        0x0000031a:    4314        .C      ORRS     r4,r4,r2
        0x0000031c:    6204        .b      STR      r4,[r0,#0x20]
        0x0000031e:    6a41        Aj      LDR      r1,[r0,#0x24]
        0x00000320:    0a09        ..      LSRS     r1,r1,#8
        0x00000322:    0209        ..      LSLS     r1,r1,#8
        0x00000324:    4319        .C      ORRS     r1,r1,r3
        0x00000326:    6241        Ab      STR      r1,[r0,#0x24]
        0x00000328:    bd30        0.      POP      {r4,r5,pc}
    $d
        0x0000032a:    0000        ..      DCW    0
        0x0000032c:    fffffbf3    ....    DCD    4294966259
    $t
    i.CLK_EnableModuleClock
    CLK_EnableModuleClock
        0x00000330:    b51f        ..      PUSH     {r0-r4,lr}
        0x00000332:    4909        .I      LDR      r1,[pc,#36] ; [0x358] = 0x24b8
        0x00000334:    c91e        ..      LDM      r1,{r1-r4}
        0x00000336:    9403        ..      STR      r4,[sp,#0xc]
        0x00000338:    466c        lF      MOV      r4,sp
        0x0000033a:    c40e        ..      STM      r4!,{r1-r3}
        0x0000033c:    0f81        ..      LSRS     r1,r0,#30
        0x0000033e:    008a        ..      LSLS     r2,r1,#2
        0x00000340:    4669        iF      MOV      r1,sp
        0x00000342:    588a        .X      LDR      r2,[r1,r2]
        0x00000344:    4905        .I      LDR      r1,[pc,#20] ; [0x35c] = 0x50000200
        0x00000346:    1851        Q.      ADDS     r1,r2,r1
        0x00000348:    684a        Jh      LDR      r2,[r1,#4]
        0x0000034a:    06c3        ..      LSLS     r3,r0,#27
        0x0000034c:    0edb        ..      LSRS     r3,r3,#27
        0x0000034e:    2001        .       MOVS     r0,#1
        0x00000350:    4098        .@      LSLS     r0,r0,r3
        0x00000352:    4302        .C      ORRS     r2,r2,r0
        0x00000354:    604a        J`      STR      r2,[r1,#4]
        0x00000356:    bd1f        ..      POP      {r0-r4,pc}
    $d
        0x00000358:    000024b8    .$..    DCD    9400
        0x0000035c:    50000200    ...P    DCD    1342177792
    $t
    i.CLK_EnablePLL
    CLK_EnablePLL
        0x00000360:    b5f0        ..      PUSH     {r4-r7,lr}
        0x00000362:    0007        ..      MOVS     r7,r0
        0x00000364:    460c        .F      MOV      r4,r1
        0x00000366:    4856        VH      LDR      r0,[pc,#344] ; [0x4c0] = 0x50000200
        0x00000368:    b085        ..      SUB      sp,sp,#0x14
        0x0000036a:    4954        TI      LDR      r1,[pc,#336] ; [0x4bc] = 0x10000
        0x0000036c:    6201        .b      STR      r1,[r0,#0x20]
        0x0000036e:    4e55        UN      LDR      r6,[pc,#340] ; [0x4c4] = 0xb71b00
        0x00000370:    6801        .h      LDR      r1,[r0,#0]
        0x00000372:    d013        ..      BEQ      0x39c ; CLK_EnablePLL + 60
        0x00000374:    2204        ."      MOVS     r2,#4
        0x00000376:    4311        .C      ORRS     r1,r1,r2
        0x00000378:    6001        .`      STR      r1,[r0,#0]
        0x0000037a:    2010        .       MOVS     r0,#0x10
        0x0000037c:    f000f9d0    ....    BL       CLK_WaitClockReady ; 0x720
        0x00000380:    2001        .       MOVS     r0,#1
        0x00000382:    04c0        ..      LSLS     r0,r0,#19
        0x00000384:    9002        ..      STR      r0,[sp,#8]
        0x00000386:    4850        PH      LDR      r0,[pc,#320] ; [0x4c8] = 0x1518000
        0x00000388:    2504        .%      MOVS     r5,#4
        0x0000038a:    9003        ..      STR      r0,[sp,#0xc]
        0x0000038c:    484f        OH      LDR      r0,[pc,#316] ; [0x4cc] = 0xfa0a1eff
        0x0000038e:    4950        PI      LDR      r1,[pc,#320] ; [0x4d0] = 0x5f5e0ff
        0x00000390:    1820         .      ADDS     r0,r4,r0
        0x00000392:    4288        .B      CMP      r0,r1
        0x00000394:    d80d        ..      BHI      0x3b2 ; CLK_EnablePLL + 82
        0x00000396:    2000        .       MOVS     r0,#0
        0x00000398:    9004        ..      STR      r0,[sp,#0x10]
        0x0000039a:    e01c        ..      B        0x3d6 ; CLK_EnablePLL + 118
        0x0000039c:    2201        ."      MOVS     r2,#1
        0x0000039e:    4311        .C      ORRS     r1,r1,r2
        0x000003a0:    6001        .`      STR      r1,[r0,#0]
        0x000003a2:    4610        .F      MOV      r0,r2
        0x000003a4:    f000f9bc    ....    BL       CLK_WaitClockReady ; 0x720
        0x000003a8:    2000        .       MOVS     r0,#0
        0x000003aa:    2502        .%      MOVS     r5,#2
        0x000003ac:    9603        ..      STR      r6,[sp,#0xc]
        0x000003ae:    9002        ..      STR      r0,[sp,#8]
        0x000003b0:    e7ec        ..      B        0x38c ; CLK_EnablePLL + 44
        0x000003b2:    4848        HH      LDR      r0,[pc,#288] ; [0x4d4] = 0xfd050f7f
        0x000003b4:    4948        HI      LDR      r1,[pc,#288] ; [0x4d8] = 0x2faf07f
        0x000003b6:    1820         .      ADDS     r0,r4,r0
        0x000003b8:    4288        .B      CMP      r0,r1
        0x000003ba:    d803        ..      BHI      0x3c4 ; CLK_EnablePLL + 100
        0x000003bc:    2001        .       MOVS     r0,#1
        0x000003be:    0064        d.      LSLS     r4,r4,#1
        0x000003c0:    9004        ..      STR      r0,[sp,#0x10]
        0x000003c2:    e008        ..      B        0x3d6 ; CLK_EnablePLL + 118
        0x000003c4:    4845        EH      LDR      r0,[pc,#276] ; [0x4dc] = 0xfe8287c0
        0x000003c6:    4945        EI      LDR      r1,[pc,#276] ; [0x4dc] = 0xfe8287c0
        0x000003c8:    1820         .      ADDS     r0,r4,r0
        0x000003ca:    4249        IB      RSBS     r1,r1,#0
        0x000003cc:    4288        .B      CMP      r0,r1
        0x000003ce:    d849        I.      BHI      0x464 ; CLK_EnablePLL + 260
        0x000003d0:    2003        .       MOVS     r0,#3
        0x000003d2:    00a4        ..      LSLS     r4,r4,#2
        0x000003d4:    9004        ..      STR      r0,[sp,#0x10]
        0x000003d6:    2600        .&      MOVS     r6,#0
        0x000003d8:    43f6        .C      MVNS     r6,r6
        0x000003da:    2000        .       MOVS     r0,#0
        0x000003dc:    9000        ..      STR      r0,[sp,#0]
        0x000003de:    9001        ..      STR      r0,[sp,#4]
        0x000003e0:    e021        !.      B        0x426 ; CLK_EnablePLL + 198
        0x000003e2:    4629        )F      MOV      r1,r5
        0x000003e4:    9803        ..      LDR      r0,[sp,#0xc]
        0x000003e6:    f7fffec7    ....    BL       __aeabi_uidiv ; 0x178
        0x000003ea:    493d        =I      LDR      r1,[pc,#244] ; [0x4e0] = 0xffe795ff
        0x000003ec:    4a3d        =J      LDR      r2,[pc,#244] ; [0x4e4] = 0xcc77bf
        0x000003ee:    1841        A.      ADDS     r1,r0,r1
        0x000003f0:    4291        .B      CMP      r1,r2
        0x000003f2:    d217        ..      BCS      0x424 ; CLK_EnablePLL + 196
        0x000003f4:    2202        ."      MOVS     r2,#2
        0x000003f6:    4b35        5K      LDR      r3,[pc,#212] ; [0x4cc] = 0xfa0a1eff
        0x000003f8:    4601        .F      MOV      r1,r0
        0x000003fa:    4351        QC      MULS     r1,r2,r1
        0x000003fc:    1c5b        [.      ADDS     r3,r3,#1
        0x000003fe:    18cf        ..      ADDS     r7,r1,r3
        0x00000400:    425b        [B      RSBS     r3,r3,#0
        0x00000402:    429f        .B      CMP      r7,r3
        0x00000404:    d80a        ..      BHI      0x41c ; CLK_EnablePLL + 188
        0x00000406:    42a1        .B      CMP      r1,r4
        0x00000408:    d901        ..      BLS      0x40e ; CLK_EnablePLL + 174
        0x0000040a:    1b0b        ..      SUBS     r3,r1,r4
        0x0000040c:    e000        ..      B        0x410 ; CLK_EnablePLL + 176
        0x0000040e:    1a63        c.      SUBS     r3,r4,r1
        0x00000410:    42b3        .B      CMP      r3,r6
        0x00000412:    d203        ..      BCS      0x41c ; CLK_EnablePLL + 188
        0x00000414:    001e        ..      MOVS     r6,r3
        0x00000416:    9500        ..      STR      r5,[sp,#0]
        0x00000418:    9201        ..      STR      r2,[sp,#4]
        0x0000041a:    d003        ..      BEQ      0x424 ; CLK_EnablePLL + 196
        0x0000041c:    4932        2I      LDR      r1,[pc,#200] ; [0x4e8] = 0x201
        0x0000041e:    1c52        R.      ADDS     r2,r2,#1
        0x00000420:    428a        .B      CMP      r2,r1
        0x00000422:    d9e8        ..      BLS      0x3f6 ; CLK_EnablePLL + 150
        0x00000424:    1c6d        m.      ADDS     r5,r5,#1
        0x00000426:    2d21        !-      CMP      r5,#0x21
        0x00000428:    d9db        ..      BLS      0x3e2 ; CLK_EnablePLL + 130
        0x0000042a:    9804        ..      LDR      r0,[sp,#0x10]
        0x0000042c:    9902        ..      LDR      r1,[sp,#8]
        0x0000042e:    0380        ..      LSLS     r0,r0,#14
        0x00000430:    4308        .C      ORRS     r0,r0,r1
        0x00000432:    9900        ..      LDR      r1,[sp,#0]
        0x00000434:    2201        ."      MOVS     r2,#1
        0x00000436:    0249        I.      LSLS     r1,r1,#9
        0x00000438:    0292        ..      LSLS     r2,r2,#10
        0x0000043a:    1a89        ..      SUBS     r1,r1,r2
        0x0000043c:    4308        .C      ORRS     r0,r0,r1
        0x0000043e:    9901        ..      LDR      r1,[sp,#4]
        0x00000440:    1e89        ..      SUBS     r1,r1,#2
        0x00000442:    4308        .C      ORRS     r0,r0,r1
        0x00000444:    491e        .I      LDR      r1,[pc,#120] ; [0x4c0] = 0x50000200
        0x00000446:    6208        .b      STR      r0,[r1,#0x20]
        0x00000448:    2004        .       MOVS     r0,#4
        0x0000044a:    f000f969    ..i.    BL       CLK_WaitClockReady ; 0x720
        0x0000044e:    9904        ..      LDR      r1,[sp,#0x10]
        0x00000450:    9800        ..      LDR      r0,[sp,#0]
        0x00000452:    1c49        I.      ADDS     r1,r1,#1
        0x00000454:    4341        AC      MULS     r1,r0,r1
        0x00000456:    9803        ..      LDR      r0,[sp,#0xc]
        0x00000458:    f7fffe8e    ....    BL       __aeabi_uidiv ; 0x178
        0x0000045c:    9901        ..      LDR      r1,[sp,#4]
        0x0000045e:    4348        HC      MULS     r0,r1,r0
        0x00000460:    b005        ..      ADD      sp,sp,#0x14
        0x00000462:    bdf0        ..      POP      {r4-r7,pc}
        0x00000464:    2f00        ./      CMP      r7,#0
        0x00000466:    d00f        ..      BEQ      0x488 ; CLK_EnablePLL + 296
        0x00000468:    4920         I      LDR      r1,[pc,#128] ; [0x4ec] = 0xd66f
        0x0000046a:    4815        .H      LDR      r0,[pc,#84] ; [0x4c0] = 0x50000200
        0x0000046c:    6201        .b      STR      r1,[r0,#0x20]
        0x0000046e:    2004        .       MOVS     r0,#4
        0x00000470:    f000f956    ..V.    BL       CLK_WaitClockReady ; 0x720
        0x00000474:    a01e        ..      ADR      r0,{pc}+0x7c ; 0x4f0
        0x00000476:    6800        .h      LDR      r0,[r0,#0]
        0x00000478:    9000        ..      STR      r0,[sp,#0]
        0x0000047a:    4811        .H      LDR      r0,[pc,#68] ; [0x4c0] = 0x50000200
        0x0000047c:    6a01        .j      LDR      r1,[r0,#0x20]
        0x0000047e:    1300        ..      ASRS     r0,r0,#12
        0x00000480:    4201        .B      TST      r1,r0
        0x00000482:    d003        ..      BEQ      0x48c ; CLK_EnablePLL + 300
        0x00000484:    2000        .       MOVS     r0,#0
        0x00000486:    e7eb        ..      B        0x460 ; CLK_EnablePLL + 256
        0x00000488:    491a        .I      LDR      r1,[pc,#104] ; [0x4f4] = 0xc22e
        0x0000048a:    e7ee        ..      B        0x46a ; CLK_EnablePLL + 266
        0x0000048c:    0308        ..      LSLS     r0,r1,#12
        0x0000048e:    d500        ..      BPL      0x492 ; CLK_EnablePLL + 306
        0x00000490:    4e0d        .N      LDR      r6,[pc,#52] ; [0x4c8] = 0x1518000
        0x00000492:    0388        ..      LSLS     r0,r1,#14
        0x00000494:    d501        ..      BPL      0x49a ; CLK_EnablePLL + 314
        0x00000496:    4630        0F      MOV      r0,r6
        0x00000498:    e7e2        ..      B        0x460 ; CLK_EnablePLL + 256
        0x0000049a:    0408        ..      LSLS     r0,r1,#16
        0x0000049c:    0f80        ..      LSRS     r0,r0,#30
        0x0000049e:    466a        jF      MOV      r2,sp
        0x000004a0:    5c10        .\      LDRB     r0,[r2,r0]
        0x000004a2:    05ca        ..      LSLS     r2,r1,#23
        0x000004a4:    0489        ..      LSLS     r1,r1,#18
        0x000004a6:    0ec9        ..      LSRS     r1,r1,#27
        0x000004a8:    1c89        ..      ADDS     r1,r1,#2
        0x000004aa:    0dd2        ..      LSRS     r2,r2,#23
        0x000004ac:    4341        AC      MULS     r1,r0,r1
        0x000004ae:    08b0        ..      LSRS     r0,r6,#2
        0x000004b0:    1c92        ..      ADDS     r2,r2,#2
        0x000004b2:    4350        PC      MULS     r0,r2,r0
        0x000004b4:    f7fffe60    ..`.    BL       __aeabi_uidiv ; 0x178
        0x000004b8:    0080        ..      LSLS     r0,r0,#2
        0x000004ba:    e7d1        ..      B        0x460 ; CLK_EnablePLL + 256
    $d
        0x000004bc:    00010000    ....    DCD    65536
        0x000004c0:    50000200    ...P    DCD    1342177792
        0x000004c4:    00b71b00    ....    DCD    12000000
        0x000004c8:    01518000    ..Q.    DCD    22118400
        0x000004cc:    fa0a1eff    ....    DCD    4194967295
        0x000004d0:    05f5e0ff    ....    DCD    99999999
        0x000004d4:    fd050f7f    ....    DCD    4244967295
        0x000004d8:    02faf07f    ....    DCD    49999999
        0x000004dc:    fe8287c0    ....    DCD    4269967296
        0x000004e0:    ffe795ff    ....    DCD    4293367295
        0x000004e4:    00cc77bf    .w..    DCD    13399999
        0x000004e8:    00000201    ....    DCD    513
        0x000004ec:    0000d66f    o...    DCD    54895
        0x000004f0:    04020201    ....    DCD    67240449
        0x000004f4:    0000c22e    ....    DCD    49710
    $t
    i.CLK_EnableXtalRC
    CLK_EnableXtalRC
        0x000004f8:    4902        .I      LDR      r1,[pc,#8] ; [0x504] = 0x50000200
        0x000004fa:    680a        .h      LDR      r2,[r1,#0]
        0x000004fc:    4302        .C      ORRS     r2,r2,r0
        0x000004fe:    600a        .`      STR      r2,[r1,#0]
        0x00000500:    4770        pG      BX       lr
    $d
        0x00000502:    0000        ..      DCW    0
        0x00000504:    50000200    ...P    DCD    1342177792
    $t
    i.CLK_GetHCLKFreq
    CLK_GetHCLKFreq
        0x00000508:    b510        ..      PUSH     {r4,lr}
        0x0000050a:    f000fb05    ....    BL       SystemCoreClockUpdate ; 0xb18
        0x0000050e:    4801        .H      LDR      r0,[pc,#4] ; [0x514] = 0x20000000
        0x00000510:    6800        .h      LDR      r0,[r0,#0]
        0x00000512:    bd10        ..      POP      {r4,pc}
    $d
        0x00000514:    20000000    ...     DCD    536870912
    $t
    i.CLK_GetPLLClockFreq
    CLK_GetPLLClockFreq
        0x00000518:    b508        ..      PUSH     {r3,lr}
        0x0000051a:    a011        ..      ADR      r0,{pc}+0x46 ; 0x560
        0x0000051c:    6800        .h      LDR      r0,[r0,#0]
        0x0000051e:    9000        ..      STR      r0,[sp,#0]
        0x00000520:    4810        .H      LDR      r0,[pc,#64] ; [0x564] = 0x50000200
        0x00000522:    6a01        .j      LDR      r1,[r0,#0x20]
        0x00000524:    1300        ..      ASRS     r0,r0,#12
        0x00000526:    4201        .B      TST      r1,r0
        0x00000528:    d001        ..      BEQ      0x52e ; CLK_GetPLLClockFreq + 22
        0x0000052a:    2000        .       MOVS     r0,#0
        0x0000052c:    bd08        ..      POP      {r3,pc}
        0x0000052e:    0308        ..      LSLS     r0,r1,#12
        0x00000530:    d501        ..      BPL      0x536 ; CLK_GetPLLClockFreq + 30
        0x00000532:    480d        .H      LDR      r0,[pc,#52] ; [0x568] = 0x1518000
        0x00000534:    e000        ..      B        0x538 ; CLK_GetPLLClockFreq + 32
        0x00000536:    480d        .H      LDR      r0,[pc,#52] ; [0x56c] = 0xb71b00
        0x00000538:    038a        ..      LSLS     r2,r1,#14
        0x0000053a:    d4f7        ..      BMI      0x52c ; CLK_GetPLLClockFreq + 20
        0x0000053c:    040a        ..      LSLS     r2,r1,#16
        0x0000053e:    0f92        ..      LSRS     r2,r2,#30
        0x00000540:    466b        kF      MOV      r3,sp
        0x00000542:    5c9b        .\      LDRB     r3,[r3,r2]
        0x00000544:    05ca        ..      LSLS     r2,r1,#23
        0x00000546:    0489        ..      LSLS     r1,r1,#18
        0x00000548:    0dd2        ..      LSRS     r2,r2,#23
        0x0000054a:    0ec9        ..      LSRS     r1,r1,#27
        0x0000054c:    1c89        ..      ADDS     r1,r1,#2
        0x0000054e:    0880        ..      LSRS     r0,r0,#2
        0x00000550:    1c92        ..      ADDS     r2,r2,#2
        0x00000552:    4359        YC      MULS     r1,r3,r1
        0x00000554:    4350        PC      MULS     r0,r2,r0
        0x00000556:    f7fffe0f    ....    BL       __aeabi_uidiv ; 0x178
        0x0000055a:    0080        ..      LSLS     r0,r0,#2
        0x0000055c:    bd08        ..      POP      {r3,pc}
    $d
        0x0000055e:    0000        ..      DCW    0
        0x00000560:    04020201    ....    DCD    67240449
        0x00000564:    50000200    ...P    DCD    1342177792
        0x00000568:    01518000    ..Q.    DCD    22118400
        0x0000056c:    00b71b00    ....    DCD    12000000
    $t
    i.CLK_SetCoreClock
    CLK_SetCoreClock
        0x00000570:    b5f8        ..      PUSH     {r3-r7,lr}
        0x00000572:    4c1b        .L      LDR      r4,[pc,#108] ; [0x5e0] = 0x50000200
        0x00000574:    68e5        .h      LDR      r5,[r4,#0xc]
        0x00000576:    2110        .!      MOVS     r1,#0x10
        0x00000578:    400d        .@      ANDS     r5,r5,r1
        0x0000057a:    491a        .I      LDR      r1,[pc,#104] ; [0x5e4] = 0x2faf080
        0x0000057c:    4288        .B      CMP      r0,r1
        0x0000057e:    d802        ..      BHI      0x586 ; CLK_SetCoreClock + 22
        0x00000580:    1049        I.      ASRS     r1,r1,#1
        0x00000582:    4288        .B      CMP      r0,r1
        0x00000584:    d200        ..      BCS      0x588 ; CLK_SetCoreClock + 24
        0x00000586:    4608        .F      MOV      r0,r1
        0x00000588:    6821        !h      LDR      r1,[r4,#0]
        0x0000058a:    2604        .&      MOVS     r6,#4
        0x0000058c:    4331        1C      ORRS     r1,r1,r6
        0x0000058e:    6021        !`      STR      r1,[r4,#0]
        0x00000590:    68e1        .h      LDR      r1,[r4,#0xc]
        0x00000592:    06c9        ..      LSLS     r1,r1,#27
        0x00000594:    d5fc        ..      BPL      0x590 ; CLK_SetCoreClock + 32
        0x00000596:    6921        !i      LDR      r1,[r4,#0x10]
        0x00000598:    2207        ."      MOVS     r2,#7
        0x0000059a:    4311        .C      ORRS     r1,r1,r2
        0x0000059c:    6121        !a      STR      r1,[r4,#0x10]
        0x0000059e:    6a21        !j      LDR      r1,[r4,#0x20]
        0x000005a0:    2201        ."      MOVS     r2,#1
        0x000005a2:    0412        ..      LSLS     r2,r2,#16
        0x000005a4:    4311        .C      ORRS     r1,r1,r2
        0x000005a6:    6221        !b      STR      r1,[r4,#0x20]
        0x000005a8:    68e1        .h      LDR      r1,[r4,#0xc]
        0x000005aa:    07c9        ..      LSLS     r1,r1,#31
        0x000005ac:    4601        .F      MOV      r1,r0
        0x000005ae:    d004        ..      BEQ      0x5ba ; CLK_SetCoreClock + 74
        0x000005b0:    2000        .       MOVS     r0,#0
        0x000005b2:    f7fffed5    ....    BL       CLK_EnablePLL ; 0x360
        0x000005b6:    4607        .F      MOV      r7,r0
        0x000005b8:    e007        ..      B        0x5ca ; CLK_SetCoreClock + 90
        0x000005ba:    2001        .       MOVS     r0,#1
        0x000005bc:    04c0        ..      LSLS     r0,r0,#19
        0x000005be:    f7fffecf    ....    BL       CLK_EnablePLL ; 0x360
        0x000005c2:    68e5        .h      LDR      r5,[r4,#0xc]
        0x000005c4:    4607        .F      MOV      r7,r0
        0x000005c6:    2010        .       MOVS     r0,#0x10
        0x000005c8:    4005        .@      ANDS     r5,r5,r0
        0x000005ca:    2100        .!      MOVS     r1,#0
        0x000005cc:    2002        .       MOVS     r0,#2
        0x000005ce:    f000f80b    ....    BL       CLK_SetHCLK ; 0x5e8
        0x000005d2:    2d00        .-      CMP      r5,#0
        0x000005d4:    d102        ..      BNE      0x5dc ; CLK_SetCoreClock + 108
        0x000005d6:    6820         h      LDR      r0,[r4,#0]
        0x000005d8:    43b0        .C      BICS     r0,r0,r6
        0x000005da:    6020         `      STR      r0,[r4,#0]
        0x000005dc:    4638        8F      MOV      r0,r7
        0x000005de:    bdf8        ..      POP      {r3-r7,pc}
    $d
        0x000005e0:    50000200    ...P    DCD    1342177792
        0x000005e4:    02faf080    ....    DCD    50000000
    $t
    i.CLK_SetHCLK
    CLK_SetHCLK
        0x000005e8:    b570        p.      PUSH     {r4-r6,lr}
        0x000005ea:    4c10        .L      LDR      r4,[pc,#64] ; [0x62c] = 0x50000200
        0x000005ec:    68e5        .h      LDR      r5,[r4,#0xc]
        0x000005ee:    2610        .&      MOVS     r6,#0x10
        0x000005f0:    6822        "h      LDR      r2,[r4,#0]
        0x000005f2:    4035        5@      ANDS     r5,r5,r6
        0x000005f4:    2304        .#      MOVS     r3,#4
        0x000005f6:    431a        .C      ORRS     r2,r2,r3
        0x000005f8:    6022        "`      STR      r2,[r4,#0]
        0x000005fa:    68e2        .h      LDR      r2,[r4,#0xc]
        0x000005fc:    06d2        ..      LSLS     r2,r2,#27
        0x000005fe:    d5fc        ..      BPL      0x5fa ; CLK_SetHCLK + 18
        0x00000600:    6922        "i      LDR      r2,[r4,#0x10]
        0x00000602:    2307        .#      MOVS     r3,#7
        0x00000604:    431a        .C      ORRS     r2,r2,r3
        0x00000606:    6122        "a      STR      r2,[r4,#0x10]
        0x00000608:    69a2        .i      LDR      r2,[r4,#0x18]
        0x0000060a:    0912        ..      LSRS     r2,r2,#4
        0x0000060c:    0112        ..      LSLS     r2,r2,#4
        0x0000060e:    430a        .C      ORRS     r2,r2,r1
        0x00000610:    61a2        .a      STR      r2,[r4,#0x18]
        0x00000612:    6921        !i      LDR      r1,[r4,#0x10]
        0x00000614:    4399        .C      BICS     r1,r1,r3
        0x00000616:    4301        .C      ORRS     r1,r1,r0
        0x00000618:    6121        !a      STR      r1,[r4,#0x10]
        0x0000061a:    f000fa7d    ..}.    BL       SystemCoreClockUpdate ; 0xb18
        0x0000061e:    2d00        .-      CMP      r5,#0
        0x00000620:    d102        ..      BNE      0x628 ; CLK_SetHCLK + 64
        0x00000622:    6820         h      LDR      r0,[r4,#0]
        0x00000624:    43b0        .C      BICS     r0,r0,r6
        0x00000626:    6020         `      STR      r0,[r4,#0]
        0x00000628:    bd70        p.      POP      {r4-r6,pc}
    $d
        0x0000062a:    0000        ..      DCW    0
        0x0000062c:    50000200    ...P    DCD    1342177792
    $t
    i.CLK_SetModuleClock
    CLK_SetModuleClock
        0x00000630:    b5f0        ..      PUSH     {r4-r7,lr}
        0x00000632:    4b2c        ,K      LDR      r3,[pc,#176] ; [0x6e4] = 0x24a0
        0x00000634:    b086        ..      SUB      sp,sp,#0x18
        0x00000636:    461c        .F      MOV      r4,r3
        0x00000638:    3408        .4      ADDS     r4,r4,#8
        0x0000063a:    ccf0        ..      LDM      r4,{r4-r7}
        0x0000063c:    9400        ..      STR      r4,[sp,#0]
        0x0000063e:    ac01        ..      ADD      r4,sp,#4
        0x00000640:    c4e0        ..      STM      r4!,{r5-r7}
        0x00000642:    cb18        ..      LDM      r3,{r3,r4}
        0x00000644:    9304        ..      STR      r3,[sp,#0x10]
        0x00000646:    0e43        C.      LSRS     r3,r0,#25
        0x00000648:    9405        ..      STR      r4,[sp,#0x14]
        0x0000064a:    075b        [.      LSLS     r3,r3,#29
        0x0000064c:    d034        4.      BEQ      0x6b8 ; CLK_SetModuleClock + 136
        0x0000064e:    0083        ..      LSLS     r3,r0,#2
        0x00000650:    0f9b        ..      LSRS     r3,r3,#30
        0x00000652:    009b        ..      LSLS     r3,r3,#2
        0x00000654:    466c        lF      MOV      r4,sp
        0x00000656:    58e3        .X      LDR      r3,[r4,r3]
        0x00000658:    4c23        #L      LDR      r4,[pc,#140] ; [0x6e8] = 0x50000210
        0x0000065a:    191b        ..      ADDS     r3,r3,r4
        0x0000065c:    0104        ..      LSLS     r4,r0,#4
        0x0000065e:    0f65        e.      LSRS     r5,r4,#29
        0x00000660:    01c4        ..      LSLS     r4,r0,#7
        0x00000662:    0ee4        ..      LSRS     r4,r4,#27
        0x00000664:    40a5        .@      LSLS     r5,r5,r4
        0x00000666:    681c        .h      LDR      r4,[r3,#0]
        0x00000668:    43ac        .C      BICS     r4,r4,r5
        0x0000066a:    430c        .C      ORRS     r4,r4,r1
        0x0000066c:    601c        .`      STR      r4,[r3,#0]
        0x0000066e:    4b1e        .K      LDR      r3,[pc,#120] ; [0x6e8] = 0x50000210
        0x00000670:    4c1e        .L      LDR      r4,[pc,#120] ; [0x6ec] = 0x57c00014
        0x00000672:    3b10        .;      SUBS     r3,r3,#0x10
        0x00000674:    42a0        .B      CMP      r0,r4
        0x00000676:    d107        ..      BNE      0x688 ; CLK_SetModuleClock + 88
        0x00000678:    69dd        .i      LDR      r5,[r3,#0x1c]
        0x0000067a:    24ff        .$      MOVS     r4,#0xff
        0x0000067c:    3401        .4      ADDS     r4,#1
        0x0000067e:    43a5        .C      BICS     r5,r5,r4
        0x00000680:    4021        !@      ANDS     r1,r1,r4
        0x00000682:    430d        .C      ORRS     r5,r5,r1
        0x00000684:    61dd        .a      STR      r5,[r3,#0x1c]
        0x00000686:    e017        ..      B        0x6b8 ; CLK_SetModuleClock + 136
        0x00000688:    4c19        .L      LDR      r4,[pc,#100] ; [0x6f0] = 0x57e00015
        0x0000068a:    42a0        .B      CMP      r0,r4
        0x0000068c:    d103        ..      BNE      0x696 ; CLK_SetModuleClock + 102
        0x0000068e:    69dc        .i      LDR      r4,[r3,#0x1c]
        0x00000690:    2501        .%      MOVS     r5,#1
        0x00000692:    026d        m.      LSLS     r5,r5,#9
        0x00000694:    e00c        ..      B        0x6b0 ; CLK_SetModuleClock + 128
        0x00000696:    4c17        .L      LDR      r4,[pc,#92] ; [0x6f4] = 0x66400016
        0x00000698:    42a0        .B      CMP      r0,r4
        0x0000069a:    d103        ..      BNE      0x6a4 ; CLK_SetModuleClock + 116
        0x0000069c:    69dc        .i      LDR      r4,[r3,#0x1c]
        0x0000069e:    2501        .%      MOVS     r5,#1
        0x000006a0:    02ad        ..      LSLS     r5,r5,#10
        0x000006a2:    e005        ..      B        0x6b0 ; CLK_SetModuleClock + 128
        0x000006a4:    4c14        .L      LDR      r4,[pc,#80] ; [0x6f8] = 0x66600017
        0x000006a6:    42a0        .B      CMP      r0,r4
        0x000006a8:    d106        ..      BNE      0x6b8 ; CLK_SetModuleClock + 136
        0x000006aa:    69dc        .i      LDR      r4,[r3,#0x1c]
        0x000006ac:    2501        .%      MOVS     r5,#1
        0x000006ae:    02ed        ..      LSLS     r5,r5,#11
        0x000006b0:    43ac        .C      BICS     r4,r4,r5
        0x000006b2:    4029        )@      ANDS     r1,r1,r5
        0x000006b4:    430c        .C      ORRS     r4,r4,r1
        0x000006b6:    61dc        .a      STR      r4,[r3,#0x1c]
        0x000006b8:    0a83        ..      LSRS     r3,r0,#10
        0x000006ba:    0619        ..      LSLS     r1,r3,#24
        0x000006bc:    0e09        ..      LSRS     r1,r1,#24
        0x000006be:    d00f        ..      BEQ      0x6e0 ; CLK_SetModuleClock + 176
        0x000006c0:    0301        ..      LSLS     r1,r0,#12
        0x000006c2:    0f89        ..      LSRS     r1,r1,#30
        0x000006c4:    0089        ..      LSLS     r1,r1,#2
        0x000006c6:    ac04        ..      ADD      r4,sp,#0x10
        0x000006c8:    5861        aX      LDR      r1,[r4,r1]
        0x000006ca:    4c07        .L      LDR      r4,[pc,#28] ; [0x6e8] = 0x50000210
        0x000006cc:    0580        ..      LSLS     r0,r0,#22
        0x000006ce:    3408        .4      ADDS     r4,r4,#8
        0x000006d0:    1909        ..      ADDS     r1,r1,r4
        0x000006d2:    b2db        ..      UXTB     r3,r3
        0x000006d4:    0ec0        ..      LSRS     r0,r0,#27
        0x000006d6:    4083        .@      LSLS     r3,r3,r0
        0x000006d8:    6808        .h      LDR      r0,[r1,#0]
        0x000006da:    4398        .C      BICS     r0,r0,r3
        0x000006dc:    4310        .C      ORRS     r0,r0,r2
        0x000006de:    6008        .`      STR      r0,[r1,#0]
        0x000006e0:    b006        ..      ADD      sp,sp,#0x18
        0x000006e2:    bdf0        ..      POP      {r4-r7,pc}
    $d
        0x000006e4:    000024a0    .$..    DCD    9376
        0x000006e8:    50000210    ...P    DCD    1342177808
        0x000006ec:    57c00014    ...W    DCD    1472200724
        0x000006f0:    57e00015    ...W    DCD    1474297877
        0x000006f4:    66400016    ..@f    DCD    1715470358
        0x000006f8:    66600017    ..`f    DCD    1717567511
    $t
    i.CLK_SysTickDelay
    CLK_SysTickDelay
        0x000006fc:    4906        .I      LDR      r1,[pc,#24] ; [0x718] = 0x20000004
        0x000006fe:    6809        .h      LDR      r1,[r1,#0]
        0x00000700:    4348        HC      MULS     r0,r1,r0
        0x00000702:    4906        .I      LDR      r1,[pc,#24] ; [0x71c] = 0xe000e000
        0x00000704:    6148        Ha      STR      r0,[r1,#0x14]
        0x00000706:    2200        ."      MOVS     r2,#0
        0x00000708:    618a        .a      STR      r2,[r1,#0x18]
        0x0000070a:    2005        .       MOVS     r0,#5
        0x0000070c:    6108        .a      STR      r0,[r1,#0x10]
        0x0000070e:    6908        .i      LDR      r0,[r1,#0x10]
        0x00000710:    03c0        ..      LSLS     r0,r0,#15
        0x00000712:    d5fc        ..      BPL      0x70e ; CLK_SysTickDelay + 18
        0x00000714:    610a        .a      STR      r2,[r1,#0x10]
        0x00000716:    4770        pG      BX       lr
    $d
        0x00000718:    20000004    ...     DCD    536870916
        0x0000071c:    e000e000    ....    DCD    3758153728
    $t
    i.CLK_WaitClockReady
    CLK_WaitClockReady
        0x00000720:    b510        ..      PUSH     {r4,lr}
        0x00000722:    4604        .F      MOV      r4,r0
        0x00000724:    4907        .I      LDR      r1,[pc,#28] ; [0x744] = 0x124f80
        0x00000726:    4b08        .K      LDR      r3,[pc,#32] ; [0x748] = 0x50000200
        0x00000728:    e005        ..      B        0x736 ; CLK_WaitClockReady + 22
        0x0000072a:    460a        .F      MOV      r2,r1
        0x0000072c:    1e49        I.      SUBS     r1,r1,#1
        0x0000072e:    2a00        .*      CMP      r2,#0
        0x00000730:    dc01        ..      BGT      0x736 ; CLK_WaitClockReady + 22
        0x00000732:    2000        .       MOVS     r0,#0
        0x00000734:    bd10        ..      POP      {r4,pc}
        0x00000736:    68da        .h      LDR      r2,[r3,#0xc]
        0x00000738:    4620         F      MOV      r0,r4
        0x0000073a:    4390        .C      BICS     r0,r0,r2
        0x0000073c:    d1f5        ..      BNE      0x72a ; CLK_WaitClockReady + 10
        0x0000073e:    2001        .       MOVS     r0,#1
        0x00000740:    bd10        ..      POP      {r4,pc}
    $d
        0x00000742:    0000        ..      DCW    0
        0x00000744:    00124f80    .O..    DCD    1200000
        0x00000748:    50000200    ...P    DCD    1342177792
    $t
    i.CloseSevenSegment
    CloseSevenSegment
        0x0000074c:    4803        .H      LDR      r0,[pc,#12] ; [0x75c] = 0x50004280
        0x0000074e:    2100        .!      MOVS     r1,#0
        0x00000750:    6101        .a      STR      r1,[r0,#0x10]
        0x00000752:    6141        Aa      STR      r1,[r0,#0x14]
        0x00000754:    6181        .a      STR      r1,[r0,#0x18]
        0x00000756:    61c1        .a      STR      r1,[r0,#0x1c]
        0x00000758:    4770        pG      BX       lr
    $d
        0x0000075a:    0000        ..      DCW    0
        0x0000075c:    50004280    .B.P    DCD    1342194304
    $t
    i.GPIO_SetMode
    GPIO_SetMode
        0x00000760:    b5f0        ..      PUSH     {r4-r7,lr}
        0x00000762:    2300        .#      MOVS     r3,#0
        0x00000764:    2701        .'      MOVS     r7,#1
        0x00000766:    463c        <F      MOV      r4,r7
        0x00000768:    409c        .@      LSLS     r4,r4,r3
        0x0000076a:    420c        .B      TST      r4,r1
        0x0000076c:    d008        ..      BEQ      0x780 ; GPIO_SetMode + 32
        0x0000076e:    6805        .h      LDR      r5,[r0,#0]
        0x00000770:    005c        \.      LSLS     r4,r3,#1
        0x00000772:    2603        .&      MOVS     r6,#3
        0x00000774:    40a6        .@      LSLS     r6,r6,r4
        0x00000776:    43b5        .C      BICS     r5,r5,r6
        0x00000778:    4616        .F      MOV      r6,r2
        0x0000077a:    40a6        .@      LSLS     r6,r6,r4
        0x0000077c:    4335        5C      ORRS     r5,r5,r6
        0x0000077e:    6005        .`      STR      r5,[r0,#0]
        0x00000780:    1c5b        [.      ADDS     r3,r3,#1
        0x00000782:    2b10        .+      CMP      r3,#0x10
        0x00000784:    d3ef        ..      BCC      0x766 ; GPIO_SetMode + 6
        0x00000786:    bdf0        ..      POP      {r4-r7,pc}
    i.Hard_Fault_Handler
    Hard_Fault_Handler
    __tagsym$$used
        0x00000788:    4604        .F      MOV      r4,r0
        0x0000078a:    a003        ..      ADR      r0,{pc}+0xe ; 0x798
        0x0000078c:    f000fa0e    ....    BL       __0printf$5 ; 0xbac
        0x00000790:    4620         F      MOV      r0,r4
        0x00000792:    f001fe31    ..1.    BL       stackDump ; 0x23f8
        0x00000796:    e7fe        ..      B        0x796 ; Hard_Fault_Handler + 14
    $d
        0x00000798:    48206e49    In H    DCD    1210084937
        0x0000079c:    20647261    ard     DCD    543453793
        0x000007a0:    6c756146    Faul    DCD    1819631942
        0x000007a4:    61482074    t Ha    DCD    1632116852
        0x000007a8:    656c646e    ndle    DCD    1701602414
        0x000007ac:    00000a72    r...    DCD    2674
    $t
    i.Init_ADC
    Init_ADC
        0x000007b0:    b510        ..      PUSH     {r4,lr}
        0x000007b2:    4c0c        .L      LDR      r4,[pc,#48] ; [0x7e4] = 0x400e0000
        0x000007b4:    2303        .#      MOVS     r3,#3
        0x000007b6:    220c        ."      MOVS     r2,#0xc
        0x000007b8:    2100        .!      MOVS     r1,#0
        0x000007ba:    4620         F      MOV      r0,r4
        0x000007bc:    f7fffda8    ....    BL       ADC_Open ; 0x310
        0x000007c0:    6a20         j      LDR      r0,[r4,#0x20]
        0x000007c2:    2101        .!      MOVS     r1,#1
        0x000007c4:    4308        .C      ORRS     r0,r0,r1
        0x000007c6:    6220         b      STR      r0,[r4,#0x20]
        0x000007c8:    4620         F      MOV      r0,r4
        0x000007ca:    f7fffd7c    ..|.    BL       ADC_EnableInt ; 0x2c6
        0x000007ce:    2001        .       MOVS     r0,#1
        0x000007d0:    4905        .I      LDR      r1,[pc,#20] ; [0x7e8] = 0xe000e100
        0x000007d2:    0740        @.      LSLS     r0,r0,#29
        0x000007d4:    6008        .`      STR      r0,[r1,#0]
        0x000007d6:    6a20         j      LDR      r0,[r4,#0x20]
        0x000007d8:    2101        .!      MOVS     r1,#1
        0x000007da:    02c9        ..      LSLS     r1,r1,#11
        0x000007dc:    4308        .C      ORRS     r0,r0,r1
        0x000007de:    6220         b      STR      r0,[r4,#0x20]
        0x000007e0:    bd10        ..      POP      {r4,pc}
    $d
        0x000007e2:    0000        ..      DCW    0
        0x000007e4:    400e0000    ...@    DCD    1074659328
        0x000007e8:    e000e100    ....    DCD    3758153984
    $t
    i.SPI_DisableAutoSS
    SPI_DisableAutoSS
        0x000007ec:    6881        .h      LDR      r1,[r0,#8]
        0x000007ee:    220b        ."      MOVS     r2,#0xb
        0x000007f0:    4391        .C      BICS     r1,r1,r2
        0x000007f2:    6081        .`      STR      r1,[r0,#8]
        0x000007f4:    4770        pG      BX       lr
        0x000007f6:    0000        ..      MOVS     r0,r0
    i.SPI_Open
    SPI_Open
        0x000007f8:    b5f8        ..      PUSH     {r3-r7,lr}
        0x000007fa:    460d        .F      MOV      r5,r1
        0x000007fc:    4604        .F      MOV      r4,r0
        0x000007fe:    2b20         +      CMP      r3,#0x20
        0x00000800:    d100        ..      BNE      0x804 ; SPI_Open + 12
        0x00000802:    2300        .#      MOVS     r3,#0
        0x00000804:    00d8        ..      LSLS     r0,r3,#3
        0x00000806:    4328        (C      ORRS     r0,r0,r5
        0x00000808:    4310        .C      ORRS     r0,r0,r2
        0x0000080a:    6020         `      STR      r0,[r4,#0]
        0x0000080c:    6be0        .k      LDR      r0,[r4,#0x3c]
        0x0000080e:    2101        .!      MOVS     r1,#1
        0x00000810:    07c9        ..      LSLS     r1,r1,#31
        0x00000812:    4308        .C      ORRS     r0,r0,r1
        0x00000814:    63e0        .c      STR      r0,[r4,#0x3c]
        0x00000816:    f7fffe77    ..w.    BL       CLK_GetHCLKFreq ; 0x508
        0x0000081a:    2100        .!      MOVS     r1,#0
        0x0000081c:    4a4d        MJ      LDR      r2,[pc,#308] ; [0x954] = 0x40030000
        0x0000081e:    4e4e        NN      LDR      r6,[pc,#312] ; [0x958] = 0x50000200
        0x00000820:    4607        .F      MOV      r7,r0
        0x00000822:    2d00        .-      CMP      r5,#0
        0x00000824:    d005        ..      BEQ      0x832 ; SPI_Open + 58
        0x00000826:    2010        .       MOVS     r0,#0x10
        0x00000828:    60a0        .`      STR      r0,[r4,#8]
        0x0000082a:    4294        .B      CMP      r4,r2
        0x0000082c:    d17d        }.      BNE      0x92a ; SPI_Open + 306
        0x0000082e:    6972        ri      LDR      r2,[r6,#0x14]
        0x00000830:    e08b        ..      B        0x94a ; SPI_Open + 338
        0x00000832:    2000        .       MOVS     r0,#0
        0x00000834:    60a0        .`      STR      r0,[r4,#8]
        0x00000836:    4847        GH      LDR      r0,[pc,#284] ; [0x954] = 0x40030000
        0x00000838:    4284        .B      CMP      r4,r0
        0x0000083a:    d102        ..      BNE      0x842 ; SPI_Open + 74
        0x0000083c:    6970        pi      LDR      r0,[r6,#0x14]
        0x0000083e:    06c0        ..      LSLS     r0,r0,#27
        0x00000840:    e004        ..      B        0x84c ; SPI_Open + 84
        0x00000842:    4846        FH      LDR      r0,[pc,#280] ; [0x95c] = 0x40034000
        0x00000844:    4284        .B      CMP      r4,r0
        0x00000846:    d105        ..      BNE      0x854 ; SPI_Open + 92
        0x00000848:    6970        pi      LDR      r0,[r6,#0x14]
        0x0000084a:    0680        ..      LSLS     r0,r0,#26
        0x0000084c:    2800        .(      CMP      r0,#0
        0x0000084e:    da09        ..      BGE      0x864 ; SPI_Open + 108
        0x00000850:    463d        =F      MOV      r5,r7
        0x00000852:    e00a        ..      B        0x86a ; SPI_Open + 114
        0x00000854:    4842        BH      LDR      r0,[pc,#264] ; [0x960] = 0x40130000
        0x00000856:    4284        .B      CMP      r4,r0
        0x00000858:    6970        pi      LDR      r0,[r6,#0x14]
        0x0000085a:    d101        ..      BNE      0x860 ; SPI_Open + 104
        0x0000085c:    0640        @.      LSLS     r0,r0,#25
        0x0000085e:    e7f5        ..      B        0x84c ; SPI_Open + 84
        0x00000860:    0600        ..      LSLS     r0,r0,#24
        0x00000862:    e7f3        ..      B        0x84c ; SPI_Open + 84
        0x00000864:    f7fffe58    ..X.    BL       CLK_GetPLLClockFreq ; 0x518
        0x00000868:    4605        .F      MOV      r5,r0
        0x0000086a:    9806        ..      LDR      r0,[sp,#0x18]
        0x0000086c:    42b8        .B      CMP      r0,r7
        0x0000086e:    d317        ..      BCC      0x8a0 ; SPI_Open + 168
        0x00000870:    4838        8H      LDR      r0,[pc,#224] ; [0x954] = 0x40030000
        0x00000872:    4284        .B      CMP      r4,r0
        0x00000874:    d102        ..      BNE      0x87c ; SPI_Open + 132
        0x00000876:    6970        pi      LDR      r0,[r6,#0x14]
        0x00000878:    2110        .!      MOVS     r1,#0x10
        0x0000087a:    e00c        ..      B        0x896 ; SPI_Open + 158
        0x0000087c:    4837        7H      LDR      r0,[pc,#220] ; [0x95c] = 0x40034000
        0x0000087e:    4284        .B      CMP      r4,r0
        0x00000880:    d102        ..      BNE      0x888 ; SPI_Open + 144
        0x00000882:    6970        pi      LDR      r0,[r6,#0x14]
        0x00000884:    2120         !      MOVS     r1,#0x20
        0x00000886:    e006        ..      B        0x896 ; SPI_Open + 158
        0x00000888:    4835        5H      LDR      r0,[pc,#212] ; [0x960] = 0x40130000
        0x0000088a:    4284        .B      CMP      r4,r0
        0x0000088c:    6970        pi      LDR      r0,[r6,#0x14]
        0x0000088e:    d101        ..      BNE      0x894 ; SPI_Open + 156
        0x00000890:    2140        @!      MOVS     r1,#0x40
        0x00000892:    e000        ..      B        0x896 ; SPI_Open + 158
        0x00000894:    2180        .!      MOVS     r1,#0x80
        0x00000896:    4308        .C      ORRS     r0,r0,r1
        0x00000898:    6170        pa      STR      r0,[r6,#0x14]
        0x0000089a:    2000        .       MOVS     r0,#0
        0x0000089c:    6060        ``      STR      r0,[r4,#4]
        0x0000089e:    e057        W.      B        0x950 ; SPI_Open + 344
        0x000008a0:    42a8        .B      CMP      r0,r5
        0x000008a2:    d303        ..      BCC      0x8ac ; SPI_Open + 180
        0x000008a4:    2000        .       MOVS     r0,#0
        0x000008a6:    6060        ``      STR      r0,[r4,#4]
        0x000008a8:    4628        (F      MOV      r0,r5
        0x000008aa:    bdf8        ..      POP      {r3-r7,pc}
        0x000008ac:    2800        .(      CMP      r0,#0
        0x000008ae:    d029        ).      BEQ      0x904 ; SPI_Open + 268
        0x000008b0:    4628        (F      MOV      r0,r5
        0x000008b2:    210a        .!      MOVS     r1,#0xa
        0x000008b4:    4348        HC      MULS     r0,r1,r0
        0x000008b6:    4606        .F      MOV      r6,r0
        0x000008b8:    9906        ..      LDR      r1,[sp,#0x18]
        0x000008ba:    f7fffc5d    ..].    BL       __aeabi_uidiv ; 0x178
        0x000008be:    210a        .!      MOVS     r1,#0xa
        0x000008c0:    1d40        @.      ADDS     r0,r0,#5
        0x000008c2:    f7fffc59    ..Y.    BL       __aeabi_uidiv ; 0x178
        0x000008c6:    1e40        @.      SUBS     r0,r0,#1
        0x000008c8:    28ff        .(      CMP      r0,#0xff
        0x000008ca:    d926        &.      BLS      0x91a ; SPI_Open + 290
        0x000008cc:    6be0        .k      LDR      r0,[r4,#0x3c]
        0x000008ce:    0040        @.      LSLS     r0,r0,#1
        0x000008d0:    0840        @.      LSRS     r0,r0,#1
        0x000008d2:    63e0        .c      STR      r0,[r4,#0x3c]
        0x000008d4:    9806        ..      LDR      r0,[sp,#0x18]
        0x000008d6:    0041        A.      LSLS     r1,r0,#1
        0x000008d8:    4630        0F      MOV      r0,r6
        0x000008da:    f7fffc4d    ..M.    BL       __aeabi_uidiv ; 0x178
        0x000008de:    210a        .!      MOVS     r1,#0xa
        0x000008e0:    1d40        @.      ADDS     r0,r0,#5
        0x000008e2:    f7fffc49    ..I.    BL       __aeabi_uidiv ; 0x178
        0x000008e6:    1e40        @.      SUBS     r0,r0,#1
        0x000008e8:    28ff        .(      CMP      r0,#0xff
        0x000008ea:    d900        ..      BLS      0x8ee ; SPI_Open + 246
        0x000008ec:    20ff        .       MOVS     r0,#0xff
        0x000008ee:    6861        ah      LDR      r1,[r4,#4]
        0x000008f0:    0a09        ..      LSRS     r1,r1,#8
        0x000008f2:    0209        ..      LSLS     r1,r1,#8
        0x000008f4:    4301        .C      ORRS     r1,r1,r0
        0x000008f6:    6061        a`      STR      r1,[r4,#4]
        0x000008f8:    0041        A.      LSLS     r1,r0,#1
        0x000008fa:    4628        (F      MOV      r0,r5
        0x000008fc:    1c89        ..      ADDS     r1,r1,#2
        0x000008fe:    f7fffc3b    ..;.    BL       __aeabi_uidiv ; 0x178
        0x00000902:    bdf8        ..      POP      {r3-r7,pc}
        0x00000904:    6be0        .k      LDR      r0,[r4,#0x3c]
        0x00000906:    0040        @.      LSLS     r0,r0,#1
        0x00000908:    0840        @.      LSRS     r0,r0,#1
        0x0000090a:    63e0        .c      STR      r0,[r4,#0x3c]
        0x0000090c:    6860        `h      LDR      r0,[r4,#4]
        0x0000090e:    21ff        .!      MOVS     r1,#0xff
        0x00000910:    4308        .C      ORRS     r0,r0,r1
        0x00000912:    6060        ``      STR      r0,[r4,#4]
        0x00000914:    0a68        h.      LSRS     r0,r5,#9
        0x00000916:    bdf8        ..      POP      {r3-r7,pc}
        0x00000918:    e007        ..      B        0x92a ; SPI_Open + 306
        0x0000091a:    6861        ah      LDR      r1,[r4,#4]
        0x0000091c:    0a09        ..      LSRS     r1,r1,#8
        0x0000091e:    0209        ..      LSLS     r1,r1,#8
        0x00000920:    4301        .C      ORRS     r1,r1,r0
        0x00000922:    6061        a`      STR      r1,[r4,#4]
        0x00000924:    1c41        A.      ADDS     r1,r0,#1
        0x00000926:    4628        (F      MOV      r0,r5
        0x00000928:    e7e9        ..      B        0x8fe ; SPI_Open + 262
        0x0000092a:    480c        .H      LDR      r0,[pc,#48] ; [0x95c] = 0x40034000
        0x0000092c:    4284        .B      CMP      r4,r0
        0x0000092e:    d102        ..      BNE      0x936 ; SPI_Open + 318
        0x00000930:    6970        pi      LDR      r0,[r6,#0x14]
        0x00000932:    2220         "      MOVS     r2,#0x20
        0x00000934:    e004        ..      B        0x940 ; SPI_Open + 328
        0x00000936:    480a        .H      LDR      r0,[pc,#40] ; [0x960] = 0x40130000
        0x00000938:    4284        .B      CMP      r4,r0
        0x0000093a:    d104        ..      BNE      0x946 ; SPI_Open + 334
        0x0000093c:    6970        pi      LDR      r0,[r6,#0x14]
        0x0000093e:    2240        @"      MOVS     r2,#0x40
        0x00000940:    4310        .C      ORRS     r0,r0,r2
        0x00000942:    6170        pa      STR      r0,[r6,#0x14]
        0x00000944:    e003        ..      B        0x94e ; SPI_Open + 342
        0x00000946:    6972        ri      LDR      r2,[r6,#0x14]
        0x00000948:    2080        .       MOVS     r0,#0x80
        0x0000094a:    4302        .C      ORRS     r2,r2,r0
        0x0000094c:    6172        ra      STR      r2,[r6,#0x14]
        0x0000094e:    6061        a`      STR      r1,[r4,#4]
        0x00000950:    4638        8F      MOV      r0,r7
        0x00000952:    e7e0        ..      B        0x916 ; SPI_Open + 286
    $d
        0x00000954:    40030000    ...@    DCD    1073938432
        0x00000958:    50000200    ...P    DCD    1342177792
        0x0000095c:    40034000    .@.@    DCD    1073954816
        0x00000960:    40130000    ...@    DCD    1074987008
    $t
    i.SYS_Init
    SYS_Init
        0x00000964:    b570        p.      PUSH     {r4-r6,lr}
        0x00000966:    2059        Y       MOVS     r0,#0x59
        0x00000968:    2116        .!      MOVS     r1,#0x16
        0x0000096a:    4c30        0L      LDR      r4,[pc,#192] ; [0xa2c] = 0x50000100
        0x0000096c:    2288        ."      MOVS     r2,#0x88
        0x0000096e:    e002        ..      B        0x976 ; SYS_Init + 18
        0x00000970:    6020         `      STR      r0,[r4,#0]
        0x00000972:    6021        !`      STR      r1,[r4,#0]
        0x00000974:    6022        "`      STR      r2,[r4,#0]
        0x00000976:    6823        #h      LDR      r3,[r4,#0]
        0x00000978:    2b01        .+      CMP      r3,#1
        0x0000097a:    d1f9        ..      BNE      0x970 ; SYS_Init + 12
        0x0000097c:    2001        .       MOVS     r0,#1
        0x0000097e:    f7fffdbb    ....    BL       CLK_EnableXtalRC ; 0x4f8
        0x00000982:    2001        .       MOVS     r0,#1
        0x00000984:    f7fffecc    ....    BL       CLK_WaitClockReady ; 0x720
        0x00000988:    4829        )H      LDR      r0,[pc,#164] ; [0xa30] = 0x2faf080
        0x0000098a:    f7fffdf1    ....    BL       CLK_SetCoreClock ; 0x570
        0x0000098e:    4d29        )M      LDR      r5,[pc,#164] ; [0xa34] = 0x5f000004
        0x00000990:    4628        (F      MOV      r0,r5
        0x00000992:    f7fffccd    ....    BL       CLK_EnableModuleClock ; 0x330
        0x00000996:    2200        ."      MOVS     r2,#0
        0x00000998:    4611        .F      MOV      r1,r2
        0x0000099a:    4628        (F      MOV      r0,r5
        0x0000099c:    f7fffe48    ..H.    BL       CLK_SetModuleClock ; 0x630
        0x000009a0:    4d25        %M      LDR      r5,[pc,#148] ; [0xa38] = 0x5623fe1c
        0x000009a2:    4628        (F      MOV      r0,r5
        0x000009a4:    f7fffcc4    ....    BL       CLK_EnableModuleClock ; 0x330
        0x000009a8:    2200        ."      MOVS     r2,#0
        0x000009aa:    4611        .F      MOV      r1,r2
        0x000009ac:    4628        (F      MOV      r0,r5
        0x000009ae:    f7fffe3f    ..?.    BL       CLK_SetModuleClock ; 0x630
        0x000009b2:    4d22        "M      LDR      r5,[pc,#136] ; [0xa3c] = 0x5270000f
        0x000009b4:    4628        (F      MOV      r0,r5
        0x000009b6:    f7fffcbb    ....    BL       CLK_EnableModuleClock ; 0x330
        0x000009ba:    2200        ."      MOVS     r2,#0
        0x000009bc:    2180        .!      MOVS     r1,#0x80
        0x000009be:    4628        (F      MOV      r0,r5
        0x000009c0:    f7fffe36    ..6.    BL       CLK_SetModuleClock ; 0x630
        0x000009c4:    2005        .       MOVS     r0,#5
        0x000009c6:    0700        ..      LSLS     r0,r0,#28
        0x000009c8:    6b01        .k      LDR      r1,[r0,#0x30]
        0x000009ca:    2201        ."      MOVS     r2,#1
        0x000009cc:    4311        .C      ORRS     r1,r1,r2
        0x000009ce:    6301        .c      STR      r1,[r0,#0x30]
        0x000009d0:    491b        .I      LDR      r1,[pc,#108] ; [0xa40] = 0x50004000
        0x000009d2:    684a        Jh      LDR      r2,[r1,#4]
        0x000009d4:    2301        .#      MOVS     r3,#1
        0x000009d6:    041b        ..      LSLS     r3,r3,#16
        0x000009d8:    431a        .C      ORRS     r2,r2,r3
        0x000009da:    604a        J`      STR      r2,[r1,#4]
        0x000009dc:    6b02        .k      LDR      r2,[r0,#0x30]
        0x000009de:    2302        .#      MOVS     r3,#2
        0x000009e0:    431a        .C      ORRS     r2,r2,r3
        0x000009e2:    6302        .c      STR      r2,[r0,#0x30]
        0x000009e4:    684a        Jh      LDR      r2,[r1,#4]
        0x000009e6:    041b        ..      LSLS     r3,r3,#16
        0x000009e8:    431a        .C      ORRS     r2,r2,r3
        0x000009ea:    604a        J`      STR      r2,[r1,#4]
        0x000009ec:    6b41        Ak      LDR      r1,[r0,#0x34]
        0x000009ee:    2204        ."      MOVS     r2,#4
        0x000009f0:    4311        .C      ORRS     r1,r1,r2
        0x000009f2:    6341        Ac      STR      r1,[r0,#0x34]
        0x000009f4:    490d        .I      LDR      r1,[pc,#52] ; [0xa2c] = 0x50000100
        0x000009f6:    39c0        .9      SUBS     r1,r1,#0xc0
        0x000009f8:    690a        .i      LDR      r2,[r1,#0x10]
        0x000009fa:    4b12        .K      LDR      r3,[pc,#72] ; [0xa44] = 0xfbffd7ff
        0x000009fc:    401a        .@      ANDS     r2,r2,r3
        0x000009fe:    050b        ..      LSLS     r3,r1,#20
        0x00000a00:    18d2        ..      ADDS     r2,r2,r3
        0x00000a02:    610a        .a      STR      r2,[r1,#0x10]
        0x00000a04:    6bc1        .k      LDR      r1,[r0,#0x3c]
        0x00000a06:    149a        ..      ASRS     r2,r3,#18
        0x00000a08:    4311        .C      ORRS     r1,r1,r2
        0x00000a0a:    63c1        .c      STR      r1,[r0,#0x3c]
        0x00000a0c:    6bc1        .k      LDR      r1,[r0,#0x3c]
        0x00000a0e:    0052        R.      LSLS     r2,r2,#1
        0x00000a10:    4311        .C      ORRS     r1,r1,r2
        0x00000a12:    63c1        .c      STR      r1,[r0,#0x3c]
        0x00000a14:    6bc1        .k      LDR      r1,[r0,#0x3c]
        0x00000a16:    0052        R.      LSLS     r2,r2,#1
        0x00000a18:    4311        .C      ORRS     r1,r1,r2
        0x00000a1a:    63c1        .c      STR      r1,[r0,#0x3c]
        0x00000a1c:    6bc1        .k      LDR      r1,[r0,#0x3c]
        0x00000a1e:    0052        R.      LSLS     r2,r2,#1
        0x00000a20:    4311        .C      ORRS     r1,r1,r2
        0x00000a22:    63c1        .c      STR      r1,[r0,#0x3c]
        0x00000a24:    2000        .       MOVS     r0,#0
        0x00000a26:    6020         `      STR      r0,[r4,#0]
        0x00000a28:    bd70        p.      POP      {r4-r6,pc}
    $d
        0x00000a2a:    0000        ..      DCW    0
        0x00000a2c:    50000100    ...P    DCD    1342177536
        0x00000a30:    02faf080    ....    DCD    50000000
        0x00000a34:    5f000004    ..._    DCD    1593835524
        0x00000a38:    5623fe1c    ..#V    DCD    1445199388
        0x00000a3c:    5270000f    ..pR    DCD    1383071759
        0x00000a40:    50004000    .@.P    DCD    1342193664
        0x00000a44:    fbffd7ff    ....    DCD    4227848191
    $t
    i.SendChar
    SendChar
        0x00000a48:    b570        p.      PUSH     {r4-r6,lr}
        0x00000a4a:    4c0c        .L      LDR      r4,[pc,#48] ; [0xa7c] = 0x2000002c
        0x00000a4c:    4a0a        .J      LDR      r2,[pc,#40] ; [0xa78] = 0x200008cc
        0x00000a4e:    7821        !x      LDRB     r1,[r4,#0]
        0x00000a50:    2500        .%      MOVS     r5,#0
        0x00000a52:    5450        PT      STRB     r0,[r2,r1]
        0x00000a54:    1c49        I.      ADDS     r1,r1,#1
        0x00000a56:    b2c9        ..      UXTB     r1,r1
        0x00000a58:    7021        !p      STRB     r1,[r4,#0]
        0x00000a5a:    5455        UT      STRB     r5,[r2,r1]
        0x00000a5c:    1c49        I.      ADDS     r1,r1,#1
        0x00000a5e:    2910        .)      CMP      r1,#0x10
        0x00000a60:    d203        ..      BCS      0xa6a ; SendChar + 34
        0x00000a62:    280a        .(      CMP      r0,#0xa
        0x00000a64:    d001        ..      BEQ      0xa6a ; SendChar + 34
        0x00000a66:    2800        .(      CMP      r0,#0
        0x00000a68:    d105        ..      BNE      0xa76 ; SendChar + 46
        0x00000a6a:    2200        ."      MOVS     r2,#0
        0x00000a6c:    4902        .I      LDR      r1,[pc,#8] ; [0xa78] = 0x200008cc
        0x00000a6e:    2004        .       MOVS     r0,#4
        0x00000a70:    f7fffb52    ..R.    BL       SH_DoCommand ; 0x118
        0x00000a74:    7025        %p      STRB     r5,[r4,#0]
        0x00000a76:    bd70        p.      POP      {r4-r6,pc}
    $d
        0x00000a78:    200008cc    ...     DCD    536873164
        0x00000a7c:    2000002c    ,..     DCD    536870956
    $t
    i.ShowLose
    ShowLose
        0x00000a80:    b5f0        ..      PUSH     {r4-r7,lr}
        0x00000a82:    b08d        ..      SUB      sp,sp,#0x34
        0x00000a84:    2230        0"      MOVS     r2,#0x30
        0x00000a86:    4921        !I      LDR      r1,[pc,#132] ; [0xb0c] = 0x24d8
        0x00000a88:    4668        hF      MOV      r0,sp
        0x00000a8a:    f7fffb9f    ....    BL       __aeabi_memcpy ; 0x1cc
        0x00000a8e:    2000        .       MOVS     r0,#0
        0x00000a90:    900c        ..      STR      r0,[sp,#0x30]
        0x00000a92:    2600        .&      MOVS     r6,#0
        0x00000a94:    2500        .%      MOVS     r5,#0
        0x00000a96:    00b7        ..      LSLS     r7,r6,#2
        0x00000a98:    4668        hF      MOV      r0,sp
        0x00000a9a:    183c        <.      ADDS     r4,r7,r0
        0x00000a9c:    4668        hF      MOV      r0,sp
        0x00000a9e:    59c1        .Y      LDR      r1,[r0,r7]
        0x00000aa0:    2900        .)      CMP      r1,#0
        0x00000aa2:    d002        ..      BEQ      0xaaa ; ShowLose + 42
        0x00000aa4:    2004        .       MOVS     r0,#4
        0x00000aa6:    f001fb77    ..w.    BL       showSeven ; 0x2198
        0x00000aaa:    6861        ah      LDR      r1,[r4,#4]
        0x00000aac:    2900        .)      CMP      r1,#0
        0x00000aae:    d002        ..      BEQ      0xab6 ; ShowLose + 54
        0x00000ab0:    2003        .       MOVS     r0,#3
        0x00000ab2:    f001fb71    ..q.    BL       showSeven ; 0x2198
        0x00000ab6:    68a1        .h      LDR      r1,[r4,#8]
        0x00000ab8:    2900        .)      CMP      r1,#0
        0x00000aba:    d002        ..      BEQ      0xac2 ; ShowLose + 66
        0x00000abc:    2002        .       MOVS     r0,#2
        0x00000abe:    f001fb6b    ..k.    BL       showSeven ; 0x2198
        0x00000ac2:    68e1        .h      LDR      r1,[r4,#0xc]
        0x00000ac4:    2900        .)      CMP      r1,#0
        0x00000ac6:    d002        ..      BEQ      0xace ; ShowLose + 78
        0x00000ac8:    2001        .       MOVS     r0,#1
        0x00000aca:    f001fb65    ..e.    BL       showSeven ; 0x2198
        0x00000ace:    1c6d        m.      ADDS     r5,r5,#1
        0x00000ad0:    2d64        d-      CMP      r5,#0x64
        0x00000ad2:    dbe3        ..      BLT      0xa9c ; ShowLose + 28
        0x00000ad4:    1c76        v.      ADDS     r6,r6,#1
        0x00000ad6:    2e09        ..      CMP      r6,#9
        0x00000ad8:    dbdc        ..      BLT      0xa94 ; ShowLose + 20
        0x00000ada:    980c        ..      LDR      r0,[sp,#0x30]
        0x00000adc:    1c40        @.      ADDS     r0,r0,#1
        0x00000ade:    900c        ..      STR      r0,[sp,#0x30]
        0x00000ae0:    2801        .(      CMP      r0,#1
        0x00000ae2:    dbd6        ..      BLT      0xa92 ; ShowLose + 18
        0x00000ae4:    f7fffe32    ..2.    BL       CloseSevenSegment ; 0x74c
        0x00000ae8:    2400        .$      MOVS     r4,#0
        0x00000aea:    4e09        .N      LDR      r6,[pc,#36] ; [0xb10] = 0x186a0
        0x00000aec:    4d09        .M      LDR      r5,[pc,#36] ; [0xb14] = 0x50004200
        0x00000aee:    4627        'F      MOV      r7,r4
        0x00000af0:    4630        0F      MOV      r0,r6
        0x00000af2:    f7fffe03    ....    BL       CLK_SysTickDelay ; 0x6fc
        0x00000af6:    63af        .c      STR      r7,[r5,#0x38]
        0x00000af8:    4630        0F      MOV      r0,r6
        0x00000afa:    f7fffdff    ....    BL       CLK_SysTickDelay ; 0x6fc
        0x00000afe:    2001        .       MOVS     r0,#1
        0x00000b00:    63a8        .c      STR      r0,[r5,#0x38]
        0x00000b02:    1c64        d.      ADDS     r4,r4,#1
        0x00000b04:    2c03        .,      CMP      r4,#3
        0x00000b06:    dbf3        ..      BLT      0xaf0 ; ShowLose + 112
        0x00000b08:    b00d        ..      ADD      sp,sp,#0x34
        0x00000b0a:    bdf0        ..      POP      {r4-r7,pc}
    $d
        0x00000b0c:    000024d8    .$..    DCD    9432
        0x00000b10:    000186a0    ....    DCD    100000
        0x00000b14:    50004200    .B.P    DCD    1342194176
    $t
    i.SystemCoreClockUpdate
    SystemCoreClockUpdate
        0x00000b18:    b538        8.      PUSH     {r3-r5,lr}
        0x00000b1a:    a01d        ..      ADR      r0,{pc}+0x76 ; 0xb90
        0x00000b1c:    6800        .h      LDR      r0,[r0,#0]
        0x00000b1e:    4c1d        .L      LDR      r4,[pc,#116] ; [0xb94] = 0x50000200
        0x00000b20:    9000        ..      STR      r0,[sp,#0]
        0x00000b22:    6a21        !j      LDR      r1,[r4,#0x20]
        0x00000b24:    1320         .      ASRS     r0,r4,#12
        0x00000b26:    4201        .B      TST      r1,r0
        0x00000b28:    d001        ..      BEQ      0xb2e ; SystemCoreClockUpdate + 22
        0x00000b2a:    2000        .       MOVS     r0,#0
        0x00000b2c:    e016        ..      B        0xb5c ; SystemCoreClockUpdate + 68
        0x00000b2e:    0308        ..      LSLS     r0,r1,#12
        0x00000b30:    d501        ..      BPL      0xb36 ; SystemCoreClockUpdate + 30
        0x00000b32:    4819        .H      LDR      r0,[pc,#100] ; [0xb98] = 0x1518000
        0x00000b34:    e000        ..      B        0xb38 ; SystemCoreClockUpdate + 32
        0x00000b36:    4819        .H      LDR      r0,[pc,#100] ; [0xb9c] = 0xb71b00
        0x00000b38:    038a        ..      LSLS     r2,r1,#14
        0x00000b3a:    d40f        ..      BMI      0xb5c ; SystemCoreClockUpdate + 68
        0x00000b3c:    040a        ..      LSLS     r2,r1,#16
        0x00000b3e:    0f92        ..      LSRS     r2,r2,#30
        0x00000b40:    466b        kF      MOV      r3,sp
        0x00000b42:    5c9b        .\      LDRB     r3,[r3,r2]
        0x00000b44:    05ca        ..      LSLS     r2,r1,#23
        0x00000b46:    0489        ..      LSLS     r1,r1,#18
        0x00000b48:    0dd2        ..      LSRS     r2,r2,#23
        0x00000b4a:    0ec9        ..      LSRS     r1,r1,#27
        0x00000b4c:    1c89        ..      ADDS     r1,r1,#2
        0x00000b4e:    0880        ..      LSRS     r0,r0,#2
        0x00000b50:    1c92        ..      ADDS     r2,r2,#2
        0x00000b52:    4359        YC      MULS     r1,r3,r1
        0x00000b54:    4350        PC      MULS     r0,r2,r0
        0x00000b56:    f7fffb0f    ....    BL       __aeabi_uidiv ; 0x178
        0x00000b5a:    0080        ..      LSLS     r0,r0,#2
        0x00000b5c:    4d10        .M      LDR      r5,[pc,#64] ; [0xba0] = 0x20000000
        0x00000b5e:    60a8        .`      STR      r0,[r5,#8]
        0x00000b60:    6921        !i      LDR      r1,[r4,#0x10]
        0x00000b62:    0749        I.      LSLS     r1,r1,#29
        0x00000b64:    0f49        I.      LSRS     r1,r1,#29
        0x00000b66:    2902        .)      CMP      r1,#2
        0x00000b68:    d003        ..      BEQ      0xb72 ; SystemCoreClockUpdate + 90
        0x00000b6a:    0088        ..      LSLS     r0,r1,#2
        0x00000b6c:    4629        )F      MOV      r1,r5
        0x00000b6e:    310c        .1      ADDS     r1,r1,#0xc
        0x00000b70:    5808        .X      LDR      r0,[r1,r0]
        0x00000b72:    69a1        .i      LDR      r1,[r4,#0x18]
        0x00000b74:    0709        ..      LSLS     r1,r1,#28
        0x00000b76:    0f09        ..      LSRS     r1,r1,#28
        0x00000b78:    1c49        I.      ADDS     r1,r1,#1
        0x00000b7a:    f7fffafd    ....    BL       __aeabi_uidiv ; 0x178
        0x00000b7e:    4909        .I      LDR      r1,[pc,#36] ; [0xba4] = 0xf4240
        0x00000b80:    6028        (`      STR      r0,[r5,#0]
        0x00000b82:    104a        J.      ASRS     r2,r1,#1
        0x00000b84:    1880        ..      ADDS     r0,r0,r2
        0x00000b86:    f7fffaf7    ....    BL       __aeabi_uidiv ; 0x178
        0x00000b8a:    6068        h`      STR      r0,[r5,#4]
        0x00000b8c:    bd38        8.      POP      {r3-r5,pc}
    $d
        0x00000b8e:    0000        ..      DCW    0
        0x00000b90:    04020201    ....    DCD    67240449
        0x00000b94:    50000200    ...P    DCD    1342177792
        0x00000b98:    01518000    ..Q.    DCD    22118400
        0x00000b9c:    00b71b00    ....    DCD    12000000
        0x00000ba0:    20000000    ...     DCD    536870912
        0x00000ba4:    000f4240    @B..    DCD    1000000
    $t
    i.SystemInit
    SystemInit
        0x00000ba8:    4770        pG      BX       lr
        0x00000baa:    0000        ..      MOVS     r0,r0
    i.__0printf$5
    __0printf$5
    __1printf$5
    __2printf
        0x00000bac:    b40f        ..      PUSH     {r0-r3}
        0x00000bae:    b510        ..      PUSH     {r4,lr}
        0x00000bb0:    a903        ..      ADD      r1,sp,#0xc
        0x00000bb2:    4b04        .K      LDR      r3,[pc,#16] ; [0xbc4] = 0x10a9
        0x00000bb4:    4a04        .J      LDR      r2,[pc,#16] ; [0xbc8] = 0x20000030
        0x00000bb6:    9802        ..      LDR      r0,[sp,#8]
        0x00000bb8:    f000f82c    ..,.    BL       _printf_core ; 0xc14
        0x00000bbc:    bc10        ..      POP      {r4}
        0x00000bbe:    bc08        ..      POP      {r3}
        0x00000bc0:    b004        ..      ADD      sp,sp,#0x10
        0x00000bc2:    4718        .G      BX       r3
    $d
        0x00000bc4:    000010a9    ....    DCD    4265
        0x00000bc8:    20000030    0..     DCD    536870960
    $t
    i.__0sprintf$5
    __0sprintf$5
    __1sprintf$5
    __2sprintf
        0x00000bcc:    b40f        ..      PUSH     {r0-r3}
        0x00000bce:    b510        ..      PUSH     {r4,lr}
        0x00000bd0:    a904        ..      ADD      r1,sp,#0x10
        0x00000bd2:    4b07        .K      LDR      r3,[pc,#28] ; [0xbf0] = 0xef1
        0x00000bd4:    aa02        ..      ADD      r2,sp,#8
        0x00000bd6:    9803        ..      LDR      r0,[sp,#0xc]
        0x00000bd8:    f000f81c    ....    BL       _printf_core ; 0xc14
        0x00000bdc:    4604        .F      MOV      r4,r0
        0x00000bde:    a902        ..      ADD      r1,sp,#8
        0x00000be0:    2000        .       MOVS     r0,#0
        0x00000be2:    f000f985    ....    BL       _sputc ; 0xef0
        0x00000be6:    4620         F      MOV      r0,r4
        0x00000be8:    bc10        ..      POP      {r4}
        0x00000bea:    bc08        ..      POP      {r3}
        0x00000bec:    b004        ..      ADD      sp,sp,#0x10
        0x00000bee:    4718        .G      BX       r3
    $d
        0x00000bf0:    00000ef1    ....    DCD    3825
    $t
    i.__scatterload_copy
    __scatterload_copy
        0x00000bf4:    e002        ..      B        0xbfc ; __scatterload_copy + 8
        0x00000bf6:    c808        ..      LDM      r0!,{r3}
        0x00000bf8:    1f12        ..      SUBS     r2,r2,#4
        0x00000bfa:    c108        ..      STM      r1!,{r3}
        0x00000bfc:    2a00        .*      CMP      r2,#0
        0x00000bfe:    d1fa        ..      BNE      0xbf6 ; __scatterload_copy + 2
        0x00000c00:    4770        pG      BX       lr
    i.__scatterload_null
    __scatterload_null
        0x00000c02:    4770        pG      BX       lr
    i.__scatterload_zeroinit
    __scatterload_zeroinit
        0x00000c04:    2000        .       MOVS     r0,#0
        0x00000c06:    e001        ..      B        0xc0c ; __scatterload_zeroinit + 8
        0x00000c08:    c101        ..      STM      r1!,{r0}
        0x00000c0a:    1f12        ..      SUBS     r2,r2,#4
        0x00000c0c:    2a00        .*      CMP      r2,#0
        0x00000c0e:    d1fb        ..      BNE      0xc08 ; __scatterload_zeroinit + 4
        0x00000c10:    4770        pG      BX       lr
        0x00000c12:    0000        ..      MOVS     r0,r0
    i._printf_core
    _printf_core
        0x00000c14:    b5ff        ..      PUSH     {r0-r7,lr}
        0x00000c16:    b08f        ..      SUB      sp,sp,#0x3c
        0x00000c18:    460f        .F      MOV      r7,r1
        0x00000c1a:    4604        .F      MOV      r4,r0
        0x00000c1c:    2600        .&      MOVS     r6,#0
        0x00000c1e:    e006        ..      B        0xc2e ; _printf_core + 26
        0x00000c20:    2825        %(      CMP      r0,#0x25
        0x00000c22:    d00a        ..      BEQ      0xc3a ; _printf_core + 38
        0x00000c24:    9a12        ..      LDR      r2,[sp,#0x48]
        0x00000c26:    9911        ..      LDR      r1,[sp,#0x44]
        0x00000c28:    4790        .G      BLX      r2
        0x00000c2a:    1c64        d.      ADDS     r4,r4,#1
        0x00000c2c:    1c76        v.      ADDS     r6,r6,#1
        0x00000c2e:    7820         x      LDRB     r0,[r4,#0]
        0x00000c30:    2800        .(      CMP      r0,#0
        0x00000c32:    d1f5        ..      BNE      0xc20 ; _printf_core + 12
        0x00000c34:    4630        0F      MOV      r0,r6
        0x00000c36:    b013        ..      ADD      sp,sp,#0x4c
        0x00000c38:    bdf0        ..      POP      {r4-r7,pc}
        0x00000c3a:    2500        .%      MOVS     r5,#0
        0x00000c3c:    2101        .!      MOVS     r1,#1
        0x00000c3e:    4aa1        .J      LDR      r2,[pc,#644] ; [0xec4] = 0x12809
        0x00000c40:    9500        ..      STR      r5,[sp,#0]
        0x00000c42:    e000        ..      B        0xc46 ; _printf_core + 50
        0x00000c44:    4305        .C      ORRS     r5,r5,r0
        0x00000c46:    1c64        d.      ADDS     r4,r4,#1
        0x00000c48:    7823        #x      LDRB     r3,[r4,#0]
        0x00000c4a:    4608        .F      MOV      r0,r1
        0x00000c4c:    3b20         ;      SUBS     r3,r3,#0x20
        0x00000c4e:    4098        .@      LSLS     r0,r0,r3
        0x00000c50:    4210        .B      TST      r0,r2
        0x00000c52:    d1f7        ..      BNE      0xc44 ; _printf_core + 48
        0x00000c54:    7820         x      LDRB     r0,[r4,#0]
        0x00000c56:    282e        .(      CMP      r0,#0x2e
        0x00000c58:    d115        ..      BNE      0xc86 ; _printf_core + 114
        0x00000c5a:    2004        .       MOVS     r0,#4
        0x00000c5c:    4305        .C      ORRS     r5,r5,r0
        0x00000c5e:    7860        `x      LDRB     r0,[r4,#1]
        0x00000c60:    1c64        d.      ADDS     r4,r4,#1
        0x00000c62:    282a        *(      CMP      r0,#0x2a
        0x00000c64:    d10a        ..      BNE      0xc7c ; _printf_core + 104
        0x00000c66:    cf01        ..      LDM      r7!,{r0}
        0x00000c68:    1c64        d.      ADDS     r4,r4,#1
        0x00000c6a:    9000        ..      STR      r0,[sp,#0]
        0x00000c6c:    e00b        ..      B        0xc86 ; _printf_core + 114
        0x00000c6e:    9900        ..      LDR      r1,[sp,#0]
        0x00000c70:    220a        ."      MOVS     r2,#0xa
        0x00000c72:    4351        QC      MULS     r1,r2,r1
        0x00000c74:    3930        09      SUBS     r1,r1,#0x30
        0x00000c76:    1840        @.      ADDS     r0,r0,r1
        0x00000c78:    1c64        d.      ADDS     r4,r4,#1
        0x00000c7a:    9000        ..      STR      r0,[sp,#0]
        0x00000c7c:    7820         x      LDRB     r0,[r4,#0]
        0x00000c7e:    4601        .F      MOV      r1,r0
        0x00000c80:    3930        09      SUBS     r1,r1,#0x30
        0x00000c82:    2909        .)      CMP      r1,#9
        0x00000c84:    d9f3        ..      BLS      0xc6e ; _printf_core + 90
        0x00000c86:    7820         x      LDRB     r0,[r4,#0]
        0x00000c88:    286c        l(      CMP      r0,#0x6c
        0x00000c8a:    d00e        ..      BEQ      0xcaa ; _printf_core + 150
        0x00000c8c:    dc04        ..      BGT      0xc98 ; _printf_core + 132
        0x00000c8e:    284c        L(      CMP      r0,#0x4c
        0x00000c90:    d013        ..      BEQ      0xcba ; _printf_core + 166
        0x00000c92:    286a        j(      CMP      r0,#0x6a
        0x00000c94:    d112        ..      BNE      0xcbc ; _printf_core + 168
        0x00000c96:    e004        ..      B        0xca2 ; _printf_core + 142
        0x00000c98:    2874        t(      CMP      r0,#0x74
        0x00000c9a:    d00e        ..      BEQ      0xcba ; _printf_core + 166
        0x00000c9c:    287a        z(      CMP      r0,#0x7a
        0x00000c9e:    d10d        ..      BNE      0xcbc ; _printf_core + 168
        0x00000ca0:    e00b        ..      B        0xcba ; _printf_core + 166
        0x00000ca2:    2001        .       MOVS     r0,#1
        0x00000ca4:    0540        @.      LSLS     r0,r0,#21
        0x00000ca6:    4305        .C      ORRS     r5,r5,r0
        0x00000ca8:    e007        ..      B        0xcba ; _printf_core + 166
        0x00000caa:    2101        .!      MOVS     r1,#1
        0x00000cac:    0509        ..      LSLS     r1,r1,#20
        0x00000cae:    7862        bx      LDRB     r2,[r4,#1]
        0x00000cb0:    430d        .C      ORRS     r5,r5,r1
        0x00000cb2:    4282        .B      CMP      r2,r0
        0x00000cb4:    d101        ..      BNE      0xcba ; _printf_core + 166
        0x00000cb6:    186d        m.      ADDS     r5,r5,r1
        0x00000cb8:    1c64        d.      ADDS     r4,r4,#1
        0x00000cba:    1c64        d.      ADDS     r4,r4,#1
        0x00000cbc:    7820         x      LDRB     r0,[r4,#0]
        0x00000cbe:    4686        .F      MOV      lr,r0
        0x00000cc0:    2869        i(      CMP      r0,#0x69
        0x00000cc2:    d04a        J.      BEQ      0xd5a ; _printf_core + 326
        0x00000cc4:    dc08        ..      BGT      0xcd8 ; _printf_core + 196
        0x00000cc6:    2800        .(      CMP      r0,#0
        0x00000cc8:    d0b4        ..      BEQ      0xc34 ; _printf_core + 32
        0x00000cca:    2858        X(      CMP      r0,#0x58
        0x00000ccc:    d06d        m.      BEQ      0xdaa ; _printf_core + 406
        0x00000cce:    2863        c(      CMP      r0,#0x63
        0x00000cd0:    d010        ..      BEQ      0xcf4 ; _printf_core + 224
        0x00000cd2:    2864        d(      CMP      r0,#0x64
        0x00000cd4:    d108        ..      BNE      0xce8 ; _printf_core + 212
        0x00000cd6:    e040        @.      B        0xd5a ; _printf_core + 326
        0x00000cd8:    2870        p(      CMP      r0,#0x70
        0x00000cda:    d06b        k.      BEQ      0xdb4 ; _printf_core + 416
        0x00000cdc:    2873        s(      CMP      r0,#0x73
        0x00000cde:    d012        ..      BEQ      0xd06 ; _printf_core + 242
        0x00000ce0:    2875        u(      CMP      r0,#0x75
        0x00000ce2:    d060        `.      BEQ      0xda6 ; _printf_core + 402
        0x00000ce4:    2878        x(      CMP      r0,#0x78
        0x00000ce6:    d060        `.      BEQ      0xdaa ; _printf_core + 406
        0x00000ce8:    9a12        ..      LDR      r2,[sp,#0x48]
        0x00000cea:    4670        pF      MOV      r0,lr
        0x00000cec:    9911        ..      LDR      r1,[sp,#0x44]
        0x00000cee:    4790        .G      BLX      r2
        0x00000cf0:    1c76        v.      ADDS     r6,r6,#1
        0x00000cf2:    e0e5        ..      B        0xec0 ; _printf_core + 684
        0x00000cf4:    7838        8x      LDRB     r0,[r7,#0]
        0x00000cf6:    4669        iF      MOV      r1,sp
        0x00000cf8:    7208        .r      STRB     r0,[r1,#8]
        0x00000cfa:    2000        .       MOVS     r0,#0
        0x00000cfc:    7248        Hr      STRB     r0,[r1,#9]
        0x00000cfe:    a802        ..      ADD      r0,sp,#8
        0x00000d00:    9001        ..      STR      r0,[sp,#4]
        0x00000d02:    2001        .       MOVS     r0,#1
        0x00000d04:    e003        ..      B        0xd0e ; _printf_core + 250
        0x00000d06:    6838        8h      LDR      r0,[r7,#0]
        0x00000d08:    9001        ..      STR      r0,[sp,#4]
        0x00000d0a:    2000        .       MOVS     r0,#0
        0x00000d0c:    43c0        .C      MVNS     r0,r0
        0x00000d0e:    1d3f        ?.      ADDS     r7,r7,#4
        0x00000d10:    0769        i.      LSLS     r1,r5,#29
        0x00000d12:    d50c        ..      BPL      0xd2e ; _printf_core + 282
        0x00000d14:    2500        .%      MOVS     r5,#0
        0x00000d16:    e000        ..      B        0xd1a ; _printf_core + 262
        0x00000d18:    1c6d        m.      ADDS     r5,r5,#1
        0x00000d1a:    9900        ..      LDR      r1,[sp,#0]
        0x00000d1c:    428d        .B      CMP      r5,r1
        0x00000d1e:    da0f        ..      BGE      0xd40 ; _printf_core + 300
        0x00000d20:    4285        .B      CMP      r5,r0
        0x00000d22:    dbf9        ..      BLT      0xd18 ; _printf_core + 260
        0x00000d24:    9901        ..      LDR      r1,[sp,#4]
        0x00000d26:    5d49        I]      LDRB     r1,[r1,r5]
        0x00000d28:    2900        .)      CMP      r1,#0
        0x00000d2a:    d1f5        ..      BNE      0xd18 ; _printf_core + 260
        0x00000d2c:    e008        ..      B        0xd40 ; _printf_core + 300
        0x00000d2e:    2500        .%      MOVS     r5,#0
        0x00000d30:    e000        ..      B        0xd34 ; _printf_core + 288
        0x00000d32:    1c6d        m.      ADDS     r5,r5,#1
        0x00000d34:    4285        .B      CMP      r5,r0
        0x00000d36:    dbfc        ..      BLT      0xd32 ; _printf_core + 286
        0x00000d38:    9901        ..      LDR      r1,[sp,#4]
        0x00000d3a:    5d49        I]      LDRB     r1,[r1,r5]
        0x00000d3c:    2900        .)      CMP      r1,#0
        0x00000d3e:    d1f8        ..      BNE      0xd32 ; _printf_core + 286
        0x00000d40:    1976        v.      ADDS     r6,r6,r5
        0x00000d42:    e007        ..      B        0xd54 ; _printf_core + 320
        0x00000d44:    9801        ..      LDR      r0,[sp,#4]
        0x00000d46:    9901        ..      LDR      r1,[sp,#4]
        0x00000d48:    7800        .x      LDRB     r0,[r0,#0]
        0x00000d4a:    1c49        I.      ADDS     r1,r1,#1
        0x00000d4c:    9101        ..      STR      r1,[sp,#4]
        0x00000d4e:    9a12        ..      LDR      r2,[sp,#0x48]
        0x00000d50:    9911        ..      LDR      r1,[sp,#0x44]
        0x00000d52:    4790        .G      BLX      r2
        0x00000d54:    1e6d        m.      SUBS     r5,r5,#1
        0x00000d56:    d2f5        ..      BCS      0xd44 ; _printf_core + 304
        0x00000d58:    e0b2        ..      B        0xec0 ; _printf_core + 684
        0x00000d5a:    200a        .       MOVS     r0,#0xa
        0x00000d5c:    9002        ..      STR      r0,[sp,#8]
        0x00000d5e:    2100        .!      MOVS     r1,#0
        0x00000d60:    0268        h.      LSLS     r0,r5,#9
        0x00000d62:    0f40        @.      LSRS     r0,r0,#29
        0x00000d64:    9103        ..      STR      r1,[sp,#0xc]
        0x00000d66:    2802        .(      CMP      r0,#2
        0x00000d68:    d00c        ..      BEQ      0xd84 ; _printf_core + 368
        0x00000d6a:    cf01        ..      LDM      r7!,{r0}
        0x00000d6c:    17c1        ..      ASRS     r1,r0,#31
        0x00000d6e:    4684        .F      MOV      r12,r0
        0x00000d70:    2900        .)      CMP      r1,#0
        0x00000d72:    da0d        ..      BGE      0xd90 ; _printf_core + 380
        0x00000d74:    4662        bF      MOV      r2,r12
        0x00000d76:    4608        .F      MOV      r0,r1
        0x00000d78:    4252        RB      RSBS     r2,r2,#0
        0x00000d7a:    2100        .!      MOVS     r1,#0
        0x00000d7c:    4181        .A      SBCS     r1,r1,r0
        0x00000d7e:    4694        .F      MOV      r12,r2
        0x00000d80:    202d        -       MOVS     r0,#0x2d
        0x00000d82:    e008        ..      B        0xd96 ; _printf_core + 386
        0x00000d84:    1dff        ..      ADDS     r7,r7,#7
        0x00000d86:    08ff        ..      LSRS     r7,r7,#3
        0x00000d88:    00ff        ..      LSLS     r7,r7,#3
        0x00000d8a:    cf03        ..      LDM      r7!,{r0,r1}
        0x00000d8c:    4684        .F      MOV      r12,r0
        0x00000d8e:    e7ef        ..      B        0xd70 ; _printf_core + 348
        0x00000d90:    0528        (.      LSLS     r0,r5,#20
        0x00000d92:    d504        ..      BPL      0xd9e ; _printf_core + 394
        0x00000d94:    202b        +       MOVS     r0,#0x2b
        0x00000d96:    466a        jF      MOV      r2,sp
        0x00000d98:    7410        .t      STRB     r0,[r2,#0x10]
        0x00000d9a:    2001        .       MOVS     r0,#1
        0x00000d9c:    e03c        <.      B        0xe18 ; _printf_core + 516
        0x00000d9e:    07e8        ..      LSLS     r0,r5,#31
        0x00000da0:    d03a        :.      BEQ      0xe18 ; _printf_core + 516
        0x00000da2:    2020                MOVS     r0,#0x20
        0x00000da4:    e7f7        ..      B        0xd96 ; _printf_core + 386
        0x00000da6:    200a        .       MOVS     r0,#0xa
        0x00000da8:    e000        ..      B        0xdac ; _printf_core + 408
        0x00000daa:    2010        .       MOVS     r0,#0x10
        0x00000dac:    2100        .!      MOVS     r1,#0
        0x00000dae:    9103        ..      STR      r1,[sp,#0xc]
        0x00000db0:    9002        ..      STR      r0,[sp,#8]
        0x00000db2:    e007        ..      B        0xdc4 ; _printf_core + 432
        0x00000db4:    2010        .       MOVS     r0,#0x10
        0x00000db6:    9002        ..      STR      r0,[sp,#8]
        0x00000db8:    2100        .!      MOVS     r1,#0
        0x00000dba:    2004        .       MOVS     r0,#4
        0x00000dbc:    4305        .C      ORRS     r5,r5,r0
        0x00000dbe:    2008        .       MOVS     r0,#8
        0x00000dc0:    9103        ..      STR      r1,[sp,#0xc]
        0x00000dc2:    9000        ..      STR      r0,[sp,#0]
        0x00000dc4:    0268        h.      LSLS     r0,r5,#9
        0x00000dc6:    0f40        @.      LSRS     r0,r0,#29
        0x00000dc8:    2802        .(      CMP      r0,#2
        0x00000dca:    d010        ..      BEQ      0xdee ; _printf_core + 474
        0x00000dcc:    cf01        ..      LDM      r7!,{r0}
        0x00000dce:    2100        .!      MOVS     r1,#0
        0x00000dd0:    4684        .F      MOV      r12,r0
        0x00000dd2:    2000        .       MOVS     r0,#0
        0x00000dd4:    900d        ..      STR      r0,[sp,#0x34]
        0x00000dd6:    0728        (.      LSLS     r0,r5,#28
        0x00000dd8:    d51f        ..      BPL      0xe1a ; _printf_core + 518
        0x00000dda:    4670        pF      MOV      r0,lr
        0x00000ddc:    2870        p(      CMP      r0,#0x70
        0x00000dde:    d00c        ..      BEQ      0xdfa ; _printf_core + 486
        0x00000de0:    9a02        ..      LDR      r2,[sp,#8]
        0x00000de2:    2010        .       MOVS     r0,#0x10
        0x00000de4:    9b03        ..      LDR      r3,[sp,#0xc]
        0x00000de6:    4042        B@      EORS     r2,r2,r0
        0x00000de8:    431a        .C      ORRS     r2,r2,r3
        0x00000dea:    d00c        ..      BEQ      0xe06 ; _printf_core + 498
        0x00000dec:    e015        ..      B        0xe1a ; _printf_core + 518
        0x00000dee:    1dff        ..      ADDS     r7,r7,#7
        0x00000df0:    08ff        ..      LSRS     r7,r7,#3
        0x00000df2:    00ff        ..      LSLS     r7,r7,#3
        0x00000df4:    cf03        ..      LDM      r7!,{r0,r1}
        0x00000df6:    4684        .F      MOV      r12,r0
        0x00000df8:    e7eb        ..      B        0xdd2 ; _printf_core + 446
        0x00000dfa:    2040        @       MOVS     r0,#0x40
        0x00000dfc:    466a        jF      MOV      r2,sp
        0x00000dfe:    7410        .t      STRB     r0,[r2,#0x10]
        0x00000e00:    2001        .       MOVS     r0,#1
        0x00000e02:    900d        ..      STR      r0,[sp,#0x34]
        0x00000e04:    e00c        ..      B        0xe20 ; _printf_core + 524
        0x00000e06:    4660        `F      MOV      r0,r12
        0x00000e08:    4308        .C      ORRS     r0,r0,r1
        0x00000e0a:    d006        ..      BEQ      0xe1a ; _printf_core + 518
        0x00000e0c:    2030        0       MOVS     r0,#0x30
        0x00000e0e:    466a        jF      MOV      r2,sp
        0x00000e10:    7410        .t      STRB     r0,[r2,#0x10]
        0x00000e12:    4670        pF      MOV      r0,lr
        0x00000e14:    7450        Pt      STRB     r0,[r2,#0x11]
        0x00000e16:    2002        .       MOVS     r0,#2
        0x00000e18:    900d        ..      STR      r0,[sp,#0x34]
        0x00000e1a:    4670        pF      MOV      r0,lr
        0x00000e1c:    2858        X(      CMP      r0,#0x58
        0x00000e1e:    d004        ..      BEQ      0xe2a ; _printf_core + 534
        0x00000e20:    a029        ).      ADR      r0,{pc}+0xa8 ; 0xec8
        0x00000e22:    9001        ..      STR      r0,[sp,#4]
        0x00000e24:    a80d        ..      ADD      r0,sp,#0x34
        0x00000e26:    900e        ..      STR      r0,[sp,#0x38]
        0x00000e28:    e00d        ..      B        0xe46 ; _printf_core + 562
        0x00000e2a:    a02c        ,.      ADR      r0,{pc}+0xb2 ; 0xedc
        0x00000e2c:    e7f9        ..      B        0xe22 ; _printf_core + 526
        0x00000e2e:    4660        `F      MOV      r0,r12
        0x00000e30:    9b03        ..      LDR      r3,[sp,#0xc]
        0x00000e32:    9a02        ..      LDR      r2,[sp,#8]
        0x00000e34:    f7fff9e3    ....    BL       __aeabi_uldivmod ; 0x1fe
        0x00000e38:    9b01        ..      LDR      r3,[sp,#4]
        0x00000e3a:    4684        .F      MOV      r12,r0
        0x00000e3c:    5c9b        .\      LDRB     r3,[r3,r2]
        0x00000e3e:    9a0e        ..      LDR      r2,[sp,#0x38]
        0x00000e40:    1e52        R.      SUBS     r2,r2,#1
        0x00000e42:    920e        ..      STR      r2,[sp,#0x38]
        0x00000e44:    7013        .p      STRB     r3,[r2,#0]
        0x00000e46:    4660        `F      MOV      r0,r12
        0x00000e48:    4308        .C      ORRS     r0,r0,r1
        0x00000e4a:    d1f0        ..      BNE      0xe2e ; _printf_core + 538
        0x00000e4c:    980e        ..      LDR      r0,[sp,#0x38]
        0x00000e4e:    a905        ..      ADD      r1,sp,#0x14
        0x00000e50:    1a08        ..      SUBS     r0,r1,r0
        0x00000e52:    3020         0      ADDS     r0,r0,#0x20
        0x00000e54:    9001        ..      STR      r0,[sp,#4]
        0x00000e56:    0768        h.      LSLS     r0,r5,#29
        0x00000e58:    d501        ..      BPL      0xe5e ; _printf_core + 586
        0x00000e5a:    9800        ..      LDR      r0,[sp,#0]
        0x00000e5c:    e001        ..      B        0xe62 ; _printf_core + 590
        0x00000e5e:    2001        .       MOVS     r0,#1
        0x00000e60:    9000        ..      STR      r0,[sp,#0]
        0x00000e62:    9901        ..      LDR      r1,[sp,#4]
        0x00000e64:    4288        .B      CMP      r0,r1
        0x00000e66:    dd03        ..      BLE      0xe70 ; _printf_core + 604
        0x00000e68:    4601        .F      MOV      r1,r0
        0x00000e6a:    9801        ..      LDR      r0,[sp,#4]
        0x00000e6c:    1a08        ..      SUBS     r0,r1,r0
        0x00000e6e:    e000        ..      B        0xe72 ; _printf_core + 606
        0x00000e70:    2000        .       MOVS     r0,#0
        0x00000e72:    2500        .%      MOVS     r5,#0
        0x00000e74:    9000        ..      STR      r0,[sp,#0]
        0x00000e76:    e006        ..      B        0xe86 ; _printf_core + 626
        0x00000e78:    a804        ..      ADD      r0,sp,#0x10
        0x00000e7a:    9a12        ..      LDR      r2,[sp,#0x48]
        0x00000e7c:    5d40        @]      LDRB     r0,[r0,r5]
        0x00000e7e:    9911        ..      LDR      r1,[sp,#0x44]
        0x00000e80:    4790        .G      BLX      r2
        0x00000e82:    1c6d        m.      ADDS     r5,r5,#1
        0x00000e84:    1c76        v.      ADDS     r6,r6,#1
        0x00000e86:    980d        ..      LDR      r0,[sp,#0x34]
        0x00000e88:    4285        .B      CMP      r5,r0
        0x00000e8a:    dbf5        ..      BLT      0xe78 ; _printf_core + 612
        0x00000e8c:    e004        ..      B        0xe98 ; _printf_core + 644
        0x00000e8e:    9a12        ..      LDR      r2,[sp,#0x48]
        0x00000e90:    2030        0       MOVS     r0,#0x30
        0x00000e92:    9911        ..      LDR      r1,[sp,#0x44]
        0x00000e94:    4790        .G      BLX      r2
        0x00000e96:    1c76        v.      ADDS     r6,r6,#1
        0x00000e98:    9900        ..      LDR      r1,[sp,#0]
        0x00000e9a:    1e48        H.      SUBS     r0,r1,#1
        0x00000e9c:    9000        ..      STR      r0,[sp,#0]
        0x00000e9e:    2900        .)      CMP      r1,#0
        0x00000ea0:    dcf5        ..      BGT      0xe8e ; _printf_core + 634
        0x00000ea2:    e008        ..      B        0xeb6 ; _printf_core + 674
        0x00000ea4:    980e        ..      LDR      r0,[sp,#0x38]
        0x00000ea6:    990e        ..      LDR      r1,[sp,#0x38]
        0x00000ea8:    7800        .x      LDRB     r0,[r0,#0]
        0x00000eaa:    1c49        I.      ADDS     r1,r1,#1
        0x00000eac:    910e        ..      STR      r1,[sp,#0x38]
        0x00000eae:    9a12        ..      LDR      r2,[sp,#0x48]
        0x00000eb0:    9911        ..      LDR      r1,[sp,#0x44]
        0x00000eb2:    4790        .G      BLX      r2
        0x00000eb4:    1c76        v.      ADDS     r6,r6,#1
        0x00000eb6:    9901        ..      LDR      r1,[sp,#4]
        0x00000eb8:    1e48        H.      SUBS     r0,r1,#1
        0x00000eba:    9001        ..      STR      r0,[sp,#4]
        0x00000ebc:    2900        .)      CMP      r1,#0
        0x00000ebe:    dcf1        ..      BGT      0xea4 ; _printf_core + 656
        0x00000ec0:    1c64        d.      ADDS     r4,r4,#1
        0x00000ec2:    e6b4        ..      B        0xc2e ; _printf_core + 26
    $d
        0x00000ec4:    00012809    .(..    DCD    75785
        0x00000ec8:    33323130    0123    DCD    858927408
        0x00000ecc:    37363534    4567    DCD    926299444
        0x00000ed0:    62613938    89ab    DCD    1650538808
        0x00000ed4:    66656463    cdef    DCD    1717920867
        0x00000ed8:    00000000    ....    DCD    0
        0x00000edc:    33323130    0123    DCD    858927408
        0x00000ee0:    37363534    4567    DCD    926299444
        0x00000ee4:    42413938    89AB    DCD    1111570744
        0x00000ee8:    46454443    CDEF    DCD    1178944579
        0x00000eec:    00000000    ....    DCD    0
    $t
    i._sputc
    _sputc
        0x00000ef0:    680a        .h      LDR      r2,[r1,#0]
        0x00000ef2:    1c53        S.      ADDS     r3,r2,#1
        0x00000ef4:    600b        .`      STR      r3,[r1,#0]
        0x00000ef6:    7010        .p      STRB     r0,[r2,#0]
        0x00000ef8:    4770        pG      BX       lr
        0x00000efa:    0000        ..      MOVS     r0,r0
    i.clear_LCD
    clear_LCD
        0x00000efc:    b530        0.      PUSH     {r4,r5,lr}
        0x00000efe:    2100        .!      MOVS     r1,#0
        0x00000f00:    4d12        .M      LDR      r5,[pc,#72] ; [0xf4c] = 0x2000090c
        0x00000f02:    460a        .F      MOV      r2,r1
        0x00000f04:    17cb        ..      ASRS     r3,r1,#31
        0x00000f06:    0f5b        [.      LSRS     r3,r3,#29
        0x00000f08:    185b        [.      ADDS     r3,r3,r1
        0x00000f0a:    2000        .       MOVS     r0,#0
        0x00000f0c:    10db        ..      ASRS     r3,r3,#3
        0x00000f0e:    01db        ..      LSLS     r3,r3,#7
        0x00000f10:    181c        ..      ADDS     r4,r3,r0
        0x00000f12:    1964        d.      ADDS     r4,r4,r5
        0x00000f14:    1c40        @.      ADDS     r0,r0,#1
        0x00000f16:    b200        ..      SXTH     r0,r0
        0x00000f18:    7022        "p      STRB     r2,[r4,#0]
        0x00000f1a:    2880        .(      CMP      r0,#0x80
        0x00000f1c:    dbf8        ..      BLT      0xf10 ; clear_LCD + 20
        0x00000f1e:    1c49        I.      ADDS     r1,r1,#1
        0x00000f20:    b209        ..      SXTH     r1,r1
        0x00000f22:    2940        @)      CMP      r1,#0x40
        0x00000f24:    dbee        ..      BLT      0xf04 ; clear_LCD + 8
        0x00000f26:    2100        .!      MOVS     r1,#0
        0x00000f28:    4608        .F      MOV      r0,r1
        0x00000f2a:    f000f8e9    ....    BL       lcdSetAddr ; 0x1100
        0x00000f2e:    2400        .$      MOVS     r4,#0
        0x00000f30:    2521        !%      MOVS     r5,#0x21
        0x00000f32:    016d        m.      LSLS     r5,r5,#5
        0x00000f34:    2000        .       MOVS     r0,#0
        0x00000f36:    f000f92f    ../.    BL       lcdWriteData ; 0x1198
        0x00000f3a:    1c64        d.      ADDS     r4,r4,#1
        0x00000f3c:    b224        $.      SXTH     r4,r4
        0x00000f3e:    42ac        .B      CMP      r4,r5
        0x00000f40:    dbf8        ..      BLT      0xf34 ; clear_LCD + 56
        0x00000f42:    200f        .       MOVS     r0,#0xf
        0x00000f44:    f000f928    ..(.    BL       lcdWriteData ; 0x1198
        0x00000f48:    bd30        0.      POP      {r4,r5,pc}
    $d
        0x00000f4a:    0000        ..      DCW    0
        0x00000f4c:    2000090c    ...     DCD    536873228
    $t
    i.crash
    crash
        0x00000f50:    b510        ..      PUSH     {r4,lr}
        0x00000f52:    461c        .F      MOV      r4,r3
        0x00000f54:    340c        .4      ADDS     r4,r4,#0xc
        0x00000f56:    428c        .B      CMP      r4,r1
        0x00000f58:    db0b        ..      BLT      0xf72 ; crash + 34
        0x00000f5a:    310d        .1      ADDS     r1,r1,#0xd
        0x00000f5c:    428b        .B      CMP      r3,r1
        0x00000f5e:    da08        ..      BGE      0xf72 ; crash + 34
        0x00000f60:    4611        .F      MOV      r1,r2
        0x00000f62:    310a        .1      ADDS     r1,r1,#0xa
        0x00000f64:    4281        .B      CMP      r1,r0
        0x00000f66:    dd04        ..      BLE      0xf72 ; crash + 34
        0x00000f68:    300b        .0      ADDS     r0,r0,#0xb
        0x00000f6a:    4282        .B      CMP      r2,r0
        0x00000f6c:    da01        ..      BGE      0xf72 ; crash + 34
        0x00000f6e:    2001        .       MOVS     r0,#1
        0x00000f70:    bd10        ..      POP      {r4,pc}
        0x00000f72:    2000        .       MOVS     r0,#0
        0x00000f74:    bd10        ..      POP      {r4,pc}
    i.draw_Bmp16x16
    draw_Bmp16x16
        0x00000f76:    b5ff        ..      PUSH     {r0-r7,lr}
        0x00000f78:    b083        ..      SUB      sp,sp,#0xc
        0x00000f7a:    9803        ..      LDR      r0,[sp,#0xc]
        0x00000f7c:    2871        q(      CMP      r0,#0x71
        0x00000f7e:    da2b        +.      BGE      0xfd8 ; draw_Bmp16x16 + 98
        0x00000f80:    9804        ..      LDR      r0,[sp,#0x10]
        0x00000f82:    2831        1(      CMP      r0,#0x31
        0x00000f84:    da28        (.      BGE      0xfd8 ; draw_Bmp16x16 + 98
        0x00000f86:    2600        .&      MOVS     r6,#0
        0x00000f88:    0130        0.      LSLS     r0,r6,#4
        0x00000f8a:    9001        ..      STR      r0,[sp,#4]
        0x00000f8c:    9904        ..      LDR      r1,[sp,#0x10]
        0x00000f8e:    2500        .%      MOVS     r5,#0
        0x00000f90:    00f0        ..      LSLS     r0,r6,#3
        0x00000f92:    1840        @.      ADDS     r0,r0,r1
        0x00000f94:    9000        ..      STR      r0,[sp,#0]
        0x00000f96:    9803        ..      LDR      r0,[sp,#0xc]
        0x00000f98:    1940        @.      ADDS     r0,r0,r5
        0x00000f9a:    b2c0        ..      UXTB     r0,r0
        0x00000f9c:    9002        ..      STR      r0,[sp,#8]
        0x00000f9e:    9801        ..      LDR      r0,[sp,#4]
        0x00000fa0:    1941        A.      ADDS     r1,r0,r5
        0x00000fa2:    980c        ..      LDR      r0,[sp,#0x30]
        0x00000fa4:    2400        .$      MOVS     r4,#0
        0x00000fa6:    5c47        G\      LDRB     r7,[r0,r1]
        0x00000fa8:    9800        ..      LDR      r0,[sp,#0]
        0x00000faa:    1900        ..      ADDS     r0,r0,r4
        0x00000fac:    b2c1        ..      UXTB     r1,r0
        0x00000fae:    2001        .       MOVS     r0,#1
        0x00000fb0:    40a0        .@      LSLS     r0,r0,r4
        0x00000fb2:    4238        8B      TST      r0,r7
        0x00000fb4:    d004        ..      BEQ      0xfc0 ; draw_Bmp16x16 + 74
        0x00000fb6:    9b06        ..      LDR      r3,[sp,#0x18]
        0x00000fb8:    9a05        ..      LDR      r2,[sp,#0x14]
        0x00000fba:    9802        ..      LDR      r0,[sp,#8]
        0x00000fbc:    f000f850    ..P.    BL       draw_Pixel ; 0x1060
        0x00000fc0:    1c64        d.      ADDS     r4,r4,#1
        0x00000fc2:    b2e4        ..      UXTB     r4,r4
        0x00000fc4:    2c08        .,      CMP      r4,#8
        0x00000fc6:    d3ef        ..      BCC      0xfa8 ; draw_Bmp16x16 + 50
        0x00000fc8:    1c6d        m.      ADDS     r5,r5,#1
        0x00000fca:    b2ed        ..      UXTB     r5,r5
        0x00000fcc:    2d10        .-      CMP      r5,#0x10
        0x00000fce:    d3e2        ..      BCC      0xf96 ; draw_Bmp16x16 + 32
        0x00000fd0:    1c76        v.      ADDS     r6,r6,#1
        0x00000fd2:    b2f6        ..      UXTB     r6,r6
        0x00000fd4:    2e02        ..      CMP      r6,#2
        0x00000fd6:    d3d7        ..      BCC      0xf88 ; draw_Bmp16x16 + 18
        0x00000fd8:    b007        ..      ADD      sp,sp,#0x1c
        0x00000fda:    bdf0        ..      POP      {r4-r7,pc}
    i.draw_Bmp64x64
    draw_Bmp64x64
        0x00000fdc:    b5ff        ..      PUSH     {r0-r7,lr}
        0x00000fde:    b086        ..      SUB      sp,sp,#0x18
        0x00000fe0:    9806        ..      LDR      r0,[sp,#0x18]
        0x00000fe2:    2841        A(      CMP      r0,#0x41
        0x00000fe4:    da3a        :.      BGE      0x105c ; draw_Bmp64x64 + 128
        0x00000fe6:    9807        ..      LDR      r0,[sp,#0x1c]
        0x00000fe8:    2800        .(      CMP      r0,#0
        0x00000fea:    d137        7.      BNE      0x105c ; draw_Bmp64x64 + 128
        0x00000fec:    2700        .'      MOVS     r7,#0
        0x00000fee:    01b8        ..      LSLS     r0,r7,#6
        0x00000ff0:    9003        ..      STR      r0,[sp,#0xc]
        0x00000ff2:    9907        ..      LDR      r1,[sp,#0x1c]
        0x00000ff4:    2600        .&      MOVS     r6,#0
        0x00000ff6:    00f8        ..      LSLS     r0,r7,#3
        0x00000ff8:    1840        @.      ADDS     r0,r0,r1
        0x00000ffa:    9002        ..      STR      r0,[sp,#8]
        0x00000ffc:    0130        0.      LSLS     r0,r6,#4
        0x00000ffe:    9001        ..      STR      r0,[sp,#4]
        0x00001000:    9906        ..      LDR      r1,[sp,#0x18]
        0x00001002:    2500        .%      MOVS     r5,#0
        0x00001004:    1840        @.      ADDS     r0,r0,r1
        0x00001006:    9000        ..      STR      r0,[sp,#0]
        0x00001008:    1940        @.      ADDS     r0,r0,r5
        0x0000100a:    b2c0        ..      UXTB     r0,r0
        0x0000100c:    9004        ..      STR      r0,[sp,#0x10]
        0x0000100e:    9801        ..      LDR      r0,[sp,#4]
        0x00001010:    1941        A.      ADDS     r1,r0,r5
        0x00001012:    9803        ..      LDR      r0,[sp,#0xc]
        0x00001014:    1809        ..      ADDS     r1,r1,r0
        0x00001016:    980f        ..      LDR      r0,[sp,#0x3c]
        0x00001018:    2400        .$      MOVS     r4,#0
        0x0000101a:    5c40        @\      LDRB     r0,[r0,r1]
        0x0000101c:    9005        ..      STR      r0,[sp,#0x14]
        0x0000101e:    9802        ..      LDR      r0,[sp,#8]
        0x00001020:    9a05        ..      LDR      r2,[sp,#0x14]
        0x00001022:    1900        ..      ADDS     r0,r0,r4
        0x00001024:    b2c1        ..      UXTB     r1,r0
        0x00001026:    2001        .       MOVS     r0,#1
        0x00001028:    40a0        .@      LSLS     r0,r0,r4
        0x0000102a:    4210        .B      TST      r0,r2
        0x0000102c:    d004        ..      BEQ      0x1038 ; draw_Bmp64x64 + 92
        0x0000102e:    9b09        ..      LDR      r3,[sp,#0x24]
        0x00001030:    9a08        ..      LDR      r2,[sp,#0x20]
        0x00001032:    9804        ..      LDR      r0,[sp,#0x10]
        0x00001034:    f000f814    ....    BL       draw_Pixel ; 0x1060
        0x00001038:    1c64        d.      ADDS     r4,r4,#1
        0x0000103a:    b2e4        ..      UXTB     r4,r4
        0x0000103c:    2c08        .,      CMP      r4,#8
        0x0000103e:    d3ee        ..      BCC      0x101e ; draw_Bmp64x64 + 66
        0x00001040:    1c6d        m.      ADDS     r5,r5,#1
        0x00001042:    b2ed        ..      UXTB     r5,r5
        0x00001044:    2d10        .-      CMP      r5,#0x10
        0x00001046:    d201        ..      BCS      0x104c ; draw_Bmp64x64 + 112
        0x00001048:    9800        ..      LDR      r0,[sp,#0]
        0x0000104a:    e7dd        ..      B        0x1008 ; draw_Bmp64x64 + 44
        0x0000104c:    1c76        v.      ADDS     r6,r6,#1
        0x0000104e:    b2f6        ..      UXTB     r6,r6
        0x00001050:    2e04        ..      CMP      r6,#4
        0x00001052:    d3d3        ..      BCC      0xffc ; draw_Bmp64x64 + 32
        0x00001054:    1c7f        ..      ADDS     r7,r7,#1
        0x00001056:    b2ff        ..      UXTB     r7,r7
        0x00001058:    2f08        ./      CMP      r7,#8
        0x0000105a:    d3c8        ..      BCC      0xfee ; draw_Bmp64x64 + 18
        0x0000105c:    b00a        ..      ADD      sp,sp,#0x28
        0x0000105e:    bdf0        ..      POP      {r4-r7,pc}
    i.draw_Pixel
    draw_Pixel
        0x00001060:    b530        0.      PUSH     {r4,r5,lr}
        0x00001062:    17cb        ..      ASRS     r3,r1,#31
        0x00001064:    0f5b        [.      LSRS     r3,r3,#29
        0x00001066:    185c        \.      ADDS     r4,r3,r1
        0x00001068:    08e3        ..      LSRS     r3,r4,#3
        0x0000106a:    00db        ..      LSLS     r3,r3,#3
        0x0000106c:    1acb        ..      SUBS     r3,r1,r3
        0x0000106e:    10e5        ..      ASRS     r5,r4,#3
        0x00001070:    01e9        ..      LSLS     r1,r5,#7
        0x00001072:    180c        ..      ADDS     r4,r1,r0
        0x00001074:    490b        .I      LDR      r1,[pc,#44] ; [0x10a4] = 0x2000090c
        0x00001076:    1864        d.      ADDS     r4,r4,r1
        0x00001078:    7821        !x      LDRB     r1,[r4,#0]
        0x0000107a:    2a00        .*      CMP      r2,#0
        0x0000107c:    d003        ..      BEQ      0x1086 ; draw_Pixel + 38
        0x0000107e:    2201        ."      MOVS     r2,#1
        0x00001080:    409a        .@      LSLS     r2,r2,r3
        0x00001082:    4311        .C      ORRS     r1,r1,r2
        0x00001084:    e002        ..      B        0x108c ; draw_Pixel + 44
        0x00001086:    22fe        ."      MOVS     r2,#0xfe
        0x00001088:    409a        .@      LSLS     r2,r2,r3
        0x0000108a:    4011        .@      ANDS     r1,r1,r2
        0x0000108c:    7021        !p      STRB     r1,[r4,#0]
        0x0000108e:    2181        .!      MOVS     r1,#0x81
        0x00001090:    1a08        ..      SUBS     r0,r1,r0
        0x00001092:    b2c1        ..      UXTB     r1,r0
        0x00001094:    b2e8        ..      UXTB     r0,r5
        0x00001096:    f000f833    ..3.    BL       lcdSetAddr ; 0x1100
        0x0000109a:    7820         x      LDRB     r0,[r4,#0]
        0x0000109c:    f000f87c    ..|.    BL       lcdWriteData ; 0x1198
        0x000010a0:    bd30        0.      POP      {r4,r5,pc}
    $d
        0x000010a2:    0000        ..      DCW    0
        0x000010a4:    2000090c    ...     DCD    536873228
    $t
    i.fputc
    fputc
        0x000010a8:    b510        ..      PUSH     {r4,lr}
        0x000010aa:    4604        .F      MOV      r4,r0
        0x000010ac:    f7fffccc    ....    BL       SendChar ; 0xa48
        0x000010b0:    4620         F      MOV      r0,r4
        0x000010b2:    bd10        ..      POP      {r4,pc}
    i.init_LCD
    init_LCD
        0x000010b4:    b510        ..      PUSH     {r4,lr}
        0x000010b6:    f000f811    ....    BL       init_SPI3 ; 0x10dc
        0x000010ba:    20eb        .       MOVS     r0,#0xeb
        0x000010bc:    f000f858    ..X.    BL       lcdWriteCommand ; 0x1170
        0x000010c0:    2081        .       MOVS     r0,#0x81
        0x000010c2:    f000f855    ..U.    BL       lcdWriteCommand ; 0x1170
        0x000010c6:    20a0        .       MOVS     r0,#0xa0
        0x000010c8:    f000f852    ..R.    BL       lcdWriteCommand ; 0x1170
        0x000010cc:    20c0        .       MOVS     r0,#0xc0
        0x000010ce:    f000f84f    ..O.    BL       lcdWriteCommand ; 0x1170
        0x000010d2:    20af        .       MOVS     r0,#0xaf
        0x000010d4:    f000f84c    ..L.    BL       lcdWriteCommand ; 0x1170
        0x000010d8:    bd10        ..      POP      {r4,pc}
        0x000010da:    0000        ..      MOVS     r0,r0
    i.init_SPI3
    init_SPI3
        0x000010dc:    b538        8.      PUSH     {r3-r5,lr}
        0x000010de:    4806        .H      LDR      r0,[pc,#24] ; [0x10f8] = 0xf4240
        0x000010e0:    4c06        .L      LDR      r4,[pc,#24] ; [0x10fc] = 0x40134000
        0x000010e2:    9000        ..      STR      r0,[sp,#0]
        0x000010e4:    2309        .#      MOVS     r3,#9
        0x000010e6:    2204        ."      MOVS     r2,#4
        0x000010e8:    2100        .!      MOVS     r1,#0
        0x000010ea:    4620         F      MOV      r0,r4
        0x000010ec:    f7fffb84    ....    BL       SPI_Open ; 0x7f8
        0x000010f0:    4620         F      MOV      r0,r4
        0x000010f2:    f7fffb7b    ..{.    BL       SPI_DisableAutoSS ; 0x7ec
        0x000010f6:    bd38        8.      POP      {r3-r5,pc}
    $d
        0x000010f8:    000f4240    @B..    DCD    1000000
        0x000010fc:    40134000    .@.@    DCD    1075003392
    $t
    i.lcdSetAddr
    lcdSetAddr
        0x00001100:    b510        ..      PUSH     {r4,lr}
        0x00001102:    4a1a        .J      LDR      r2,[pc,#104] ; [0x116c] = 0x40134000
        0x00001104:    6894        .h      LDR      r4,[r2,#8]
        0x00001106:    230d        .#      MOVS     r3,#0xd
        0x00001108:    439c        .C      BICS     r4,r4,r3
        0x0000110a:    1c64        d.      ADDS     r4,r4,#1
        0x0000110c:    6094        .`      STR      r4,[r2,#8]
        0x0000110e:    24b0        .$      MOVS     r4,#0xb0
        0x00001110:    4320         C      ORRS     r0,r0,r4
        0x00001112:    6210        .b      STR      r0,[r2,#0x20]
        0x00001114:    6810        .h      LDR      r0,[r2,#0]
        0x00001116:    2401        .$      MOVS     r4,#1
        0x00001118:    4320         C      ORRS     r0,r0,r4
        0x0000111a:    6010        .`      STR      r0,[r2,#0]
        0x0000111c:    6810        .h      LDR      r0,[r2,#0]
        0x0000111e:    07c0        ..      LSLS     r0,r0,#31
        0x00001120:    d1fc        ..      BNE      0x111c ; lcdSetAddr + 28
        0x00001122:    6890        .h      LDR      r0,[r2,#8]
        0x00001124:    4398        .C      BICS     r0,r0,r3
        0x00001126:    6090        .`      STR      r0,[r2,#8]
        0x00001128:    6890        .h      LDR      r0,[r2,#8]
        0x0000112a:    4398        .C      BICS     r0,r0,r3
        0x0000112c:    1c40        @.      ADDS     r0,r0,#1
        0x0000112e:    6090        .`      STR      r0,[r2,#8]
        0x00001130:    0908        ..      LSRS     r0,r1,#4
        0x00001132:    3010        .0      ADDS     r0,r0,#0x10
        0x00001134:    6210        .b      STR      r0,[r2,#0x20]
        0x00001136:    6810        .h      LDR      r0,[r2,#0]
        0x00001138:    4320         C      ORRS     r0,r0,r4
        0x0000113a:    6010        .`      STR      r0,[r2,#0]
        0x0000113c:    6810        .h      LDR      r0,[r2,#0]
        0x0000113e:    07c0        ..      LSLS     r0,r0,#31
        0x00001140:    d1fc        ..      BNE      0x113c ; lcdSetAddr + 60
        0x00001142:    6890        .h      LDR      r0,[r2,#8]
        0x00001144:    4398        .C      BICS     r0,r0,r3
        0x00001146:    6090        .`      STR      r0,[r2,#8]
        0x00001148:    6890        .h      LDR      r0,[r2,#8]
        0x0000114a:    4398        .C      BICS     r0,r0,r3
        0x0000114c:    1c40        @.      ADDS     r0,r0,#1
        0x0000114e:    6090        .`      STR      r0,[r2,#8]
        0x00001150:    0708        ..      LSLS     r0,r1,#28
        0x00001152:    0f00        ..      LSRS     r0,r0,#28
        0x00001154:    6210        .b      STR      r0,[r2,#0x20]
        0x00001156:    6810        .h      LDR      r0,[r2,#0]
        0x00001158:    4320         C      ORRS     r0,r0,r4
        0x0000115a:    6010        .`      STR      r0,[r2,#0]
        0x0000115c:    6810        .h      LDR      r0,[r2,#0]
        0x0000115e:    07c0        ..      LSLS     r0,r0,#31
        0x00001160:    d1fc        ..      BNE      0x115c ; lcdSetAddr + 92
        0x00001162:    6890        .h      LDR      r0,[r2,#8]
        0x00001164:    4398        .C      BICS     r0,r0,r3
        0x00001166:    6090        .`      STR      r0,[r2,#8]
        0x00001168:    bd10        ..      POP      {r4,pc}
    $d
        0x0000116a:    0000        ..      DCW    0
        0x0000116c:    40134000    .@.@    DCD    1075003392
    $t
    i.lcdWriteCommand
    lcdWriteCommand
        0x00001170:    4908        .I      LDR      r1,[pc,#32] ; [0x1194] = 0x40134000
        0x00001172:    688b        .h      LDR      r3,[r1,#8]
        0x00001174:    220d        ."      MOVS     r2,#0xd
        0x00001176:    4393        .C      BICS     r3,r3,r2
        0x00001178:    1c5b        [.      ADDS     r3,r3,#1
        0x0000117a:    608b        .`      STR      r3,[r1,#8]
        0x0000117c:    6208        .b      STR      r0,[r1,#0x20]
        0x0000117e:    6808        .h      LDR      r0,[r1,#0]
        0x00001180:    2301        .#      MOVS     r3,#1
        0x00001182:    4318        .C      ORRS     r0,r0,r3
        0x00001184:    6008        .`      STR      r0,[r1,#0]
        0x00001186:    6808        .h      LDR      r0,[r1,#0]
        0x00001188:    07c0        ..      LSLS     r0,r0,#31
        0x0000118a:    d1fc        ..      BNE      0x1186 ; lcdWriteCommand + 22
        0x0000118c:    6888        .h      LDR      r0,[r1,#8]
        0x0000118e:    4390        .C      BICS     r0,r0,r2
        0x00001190:    6088        .`      STR      r0,[r1,#8]
        0x00001192:    4770        pG      BX       lr
    $d
        0x00001194:    40134000    .@.@    DCD    1075003392
    $t
    i.lcdWriteData
    lcdWriteData
        0x00001198:    4909        .I      LDR      r1,[pc,#36] ; [0x11c0] = 0x40134000
        0x0000119a:    688b        .h      LDR      r3,[r1,#8]
        0x0000119c:    220d        ."      MOVS     r2,#0xd
        0x0000119e:    4393        .C      BICS     r3,r3,r2
        0x000011a0:    1c5b        [.      ADDS     r3,r3,#1
        0x000011a2:    608b        .`      STR      r3,[r1,#8]
        0x000011a4:    30ff        .0      ADDS     r0,r0,#0xff
        0x000011a6:    3001        .0      ADDS     r0,#1
        0x000011a8:    6208        .b      STR      r0,[r1,#0x20]
        0x000011aa:    6808        .h      LDR      r0,[r1,#0]
        0x000011ac:    2301        .#      MOVS     r3,#1
        0x000011ae:    4318        .C      ORRS     r0,r0,r3
        0x000011b0:    6008        .`      STR      r0,[r1,#0]
        0x000011b2:    6808        .h      LDR      r0,[r1,#0]
        0x000011b4:    07c0        ..      LSLS     r0,r0,#31
        0x000011b6:    d1fc        ..      BNE      0x11b2 ; lcdWriteData + 26
        0x000011b8:    6888        .h      LDR      r0,[r1,#8]
        0x000011ba:    4390        .C      BICS     r0,r0,r2
        0x000011bc:    6088        .`      STR      r0,[r1,#8]
        0x000011be:    4770        pG      BX       lr
    $d
        0x000011c0:    40134000    .@.@    DCD    1075003392
    $t
    i.main
    main
        0x000011c4:    b098        ..      SUB      sp,sp,#0x60
        0x000011c6:    2000        .       MOVS     r0,#0
        0x000011c8:    9015        ..      STR      r0,[sp,#0x54]
        0x000011ca:    f7fffbcb    ....    BL       SYS_Init ; 0x964
        0x000011ce:    f7fffaef    ....    BL       Init_ADC ; 0x7b0
        0x000011d2:    f7ffff6f    ..o.    BL       init_LCD ; 0x10b4
        0x000011d6:    f7fffe91    ....    BL       clear_LCD ; 0xefc
        0x000011da:    4cfa        .L      LDR      r4,[pc,#1000] ; [0x15c4] = 0x20000034
        0x000011dc:    2000        .       MOVS     r0,#0
        0x000011de:    7020         p      STRB     r0,[r4,#0]
        0x000011e0:    49f9        .I      LDR      r1,[pc,#996] ; [0x15c8] = 0x500042c0
        0x000011e2:    6388        .c      STR      r0,[r1,#0x38]
        0x000011e4:    4602        .F      MOV      r2,r0
        0x000011e6:    2101        .!      MOVS     r1,#1
        0x000011e8:    48f8        .H      LDR      r0,[pc,#992] ; [0x15cc] = 0x50004040
        0x000011ea:    f7fffab9    ....    BL       GPIO_SetMode ; 0x760
        0x000011ee:    e001        ..      B        0x11f4 ; main + 48
        0x000011f0:    f001f898    ....    BL       showSuce ; 0x2324
        0x000011f4:    2000        .       MOVS     r0,#0
        0x000011f6:    9013        ..      STR      r0,[sp,#0x4c]
        0x000011f8:    2103        .!      MOVS     r1,#3
        0x000011fa:    9815        ..      LDR      r0,[sp,#0x54]
        0x000011fc:    f7feffd2    ....    BL       __aeabi_idiv ; 0x1a4
        0x00001200:    1c49        I.      ADDS     r1,r1,#1
        0x00001202:    9115        ..      STR      r1,[sp,#0x54]
        0x00001204:    2901        .)      CMP      r1,#1
        0x00001206:    d004        ..      BEQ      0x1212 ; main + 78
        0x00001208:    2902        .)      CMP      r1,#2
        0x0000120a:    d074        t.      BEQ      0x12f6 ; main + 306
        0x0000120c:    2903        .)      CMP      r1,#3
        0x0000120e:    d073        s.      BEQ      0x12f8 ; main + 308
        0x00001210:    e3fe        ..      B        0x1a10 ; main + 2124
        0x00001212:    2010        .       MOVS     r0,#0x10
        0x00001214:    2500        .%      MOVS     r5,#0
        0x00001216:    900e        ..      STR      r0,[sp,#0x38]
        0x00001218:    9506        ..      STR      r5,[sp,#0x18]
        0x0000121a:    2020                MOVS     r0,#0x20
        0x0000121c:    9010        ..      STR      r0,[sp,#0x40]
        0x0000121e:    202f        /       MOVS     r0,#0x2f
        0x00001220:    900b        ..      STR      r0,[sp,#0x2c]
        0x00001222:    2070        p       MOVS     r0,#0x70
        0x00001224:    900a        ..      STR      r0,[sp,#0x28]
        0x00001226:    200f        .       MOVS     r0,#0xf
        0x00001228:    9009        ..      STR      r0,[sp,#0x24]
        0x0000122a:    2030        0       MOVS     r0,#0x30
        0x0000122c:    900d        ..      STR      r0,[sp,#0x34]
        0x0000122e:    202f        /       MOVS     r0,#0x2f
        0x00001230:    9008        ..      STR      r0,[sp,#0x20]
        0x00001232:    200c        .       MOVS     r0,#0xc
        0x00001234:    9003        ..      STR      r0,[sp,#0xc]
        0x00001236:    202e        .       MOVS     r0,#0x2e
        0x00001238:    9004        ..      STR      r0,[sp,#0x10]
        0x0000123a:    205e        ^       MOVS     r0,#0x5e
        0x0000123c:    2640        @&      MOVS     r6,#0x40
        0x0000123e:    9001        ..      STR      r0,[sp,#4]
        0x00001240:    9602        ..      STR      r6,[sp,#8]
        0x00001242:    2052        R       MOVS     r0,#0x52
        0x00001244:    900c        ..      STR      r0,[sp,#0x30]
        0x00001246:    201e        .       MOVS     r0,#0x1e
        0x00001248:    9007        ..      STR      r0,[sp,#0x1c]
        0x0000124a:    48de        .H      LDR      r0,[pc,#888] ; [0x15c4] = 0x20000034
        0x0000124c:    241e        .$      MOVS     r4,#0x1e
        0x0000124e:    3046        F0      ADDS     r0,r0,#0x46
        0x00001250:    9000        ..      STR      r0,[sp,#0]
        0x00001252:    2720         '      MOVS     r7,#0x20
        0x00001254:    2300        .#      MOVS     r3,#0
        0x00001256:    4ade        .J      LDR      r2,[pc,#888] ; [0x15d0] = 0xffff
        0x00001258:    4621        !F      MOV      r1,r4
        0x0000125a:    4628        (F      MOV      r0,r5
        0x0000125c:    f7fffe8b    ....    BL       draw_Bmp16x16 ; 0xf76
        0x00001260:    48d8        .H      LDR      r0,[pc,#864] ; [0x15c4] = 0x20000034
        0x00001262:    2300        .#      MOVS     r3,#0
        0x00001264:    30a6        .0      ADDS     r0,r0,#0xa6
        0x00001266:    9000        ..      STR      r0,[sp,#0]
        0x00001268:    4ad9        .J      LDR      r2,[pc,#868] ; [0x15d0] = 0xffff
        0x0000126a:    9908        ..      LDR      r1,[sp,#0x20]
        0x0000126c:    980d        ..      LDR      r0,[sp,#0x34]
        0x0000126e:    f7fffe82    ....    BL       draw_Bmp16x16 ; 0xf76
        0x00001272:    48d4        .H      LDR      r0,[pc,#848] ; [0x15c4] = 0x20000034
        0x00001274:    9906        ..      LDR      r1,[sp,#0x18]
        0x00001276:    1d80        ..      ADDS     r0,r0,#6
        0x00001278:    9000        ..      STR      r0,[sp,#0]
        0x0000127a:    2001        .       MOVS     r0,#1
        0x0000127c:    9006        ..      STR      r0,[sp,#0x18]
        0x0000127e:    2300        .#      MOVS     r3,#0
        0x00001280:    4ad3        .J      LDR      r2,[pc,#844] ; [0x15d0] = 0xffff
        0x00001282:    980e        ..      LDR      r0,[sp,#0x38]
        0x00001284:    f7fffe77    ..w.    BL       draw_Bmp16x16 ; 0xf76
        0x00001288:    48ce        .H      LDR      r0,[pc,#824] ; [0x15c4] = 0x20000034
        0x0000128a:    2300        .#      MOVS     r3,#0
        0x0000128c:    1d80        ..      ADDS     r0,r0,#6
        0x0000128e:    9000        ..      STR      r0,[sp,#0]
        0x00001290:    4acf        .J      LDR      r2,[pc,#828] ; [0x15d0] = 0xffff
        0x00001292:    9907        ..      LDR      r1,[sp,#0x1c]
        0x00001294:    980c        ..      LDR      r0,[sp,#0x30]
        0x00001296:    f7fffe6e    ..n.    BL       draw_Bmp16x16 ; 0xf76
        0x0000129a:    48ca        .H      LDR      r0,[pc,#808] ; [0x15c4] = 0x20000034
        0x0000129c:    2300        .#      MOVS     r3,#0
        0x0000129e:    3086        .0      ADDS     r0,r0,#0x86
        0x000012a0:    9000        ..      STR      r0,[sp,#0]
        0x000012a2:    4acb        .J      LDR      r2,[pc,#812] ; [0x15d0] = 0xffff
        0x000012a4:    990b        ..      LDR      r1,[sp,#0x2c]
        0x000012a6:    9810        ..      LDR      r0,[sp,#0x40]
        0x000012a8:    f7fffe65    ..e.    BL       draw_Bmp16x16 ; 0xf76
        0x000012ac:    48c5        .H      LDR      r0,[pc,#788] ; [0x15c4] = 0x20000034
        0x000012ae:    2300        .#      MOVS     r3,#0
        0x000012b0:    3026        &0      ADDS     r0,r0,#0x26
        0x000012b2:    9000        ..      STR      r0,[sp,#0]
        0x000012b4:    4ac6        .J      LDR      r2,[pc,#792] ; [0x15d0] = 0xffff
        0x000012b6:    4630        0F      MOV      r0,r6
        0x000012b8:    9903        ..      LDR      r1,[sp,#0xc]
        0x000012ba:    f7fffe5c    ..\.    BL       draw_Bmp16x16 ; 0xf76
        0x000012be:    48c1        .H      LDR      r0,[pc,#772] ; [0x15c4] = 0x20000034
        0x000012c0:    2300        .#      MOVS     r3,#0
        0x000012c2:    3026        &0      ADDS     r0,r0,#0x26
        0x000012c4:    9000        ..      STR      r0,[sp,#0]
        0x000012c6:    4ac2        .J      LDR      r2,[pc,#776] ; [0x15d0] = 0xffff
        0x000012c8:    9904        ..      LDR      r1,[sp,#0x10]
        0x000012ca:    9802        ..      LDR      r0,[sp,#8]
        0x000012cc:    f7fffe53    ..S.    BL       draw_Bmp16x16 ; 0xf76
        0x000012d0:    48bc        .H      LDR      r0,[pc,#752] ; [0x15c4] = 0x20000034
        0x000012d2:    2300        .#      MOVS     r3,#0
        0x000012d4:    3026        &0      ADDS     r0,r0,#0x26
        0x000012d6:    9000        ..      STR      r0,[sp,#0]
        0x000012d8:    4abd        .J      LDR      r2,[pc,#756] ; [0x15d0] = 0xffff
        0x000012da:    4639        9F      MOV      r1,r7
        0x000012dc:    9801        ..      LDR      r0,[sp,#4]
        0x000012de:    f7fffe4a    ..J.    BL       draw_Bmp16x16 ; 0xf76
        0x000012e2:    48b8        .H      LDR      r0,[pc,#736] ; [0x15c4] = 0x20000034
        0x000012e4:    2300        .#      MOVS     r3,#0
        0x000012e6:    3066        f0      ADDS     r0,r0,#0x66
        0x000012e8:    9000        ..      STR      r0,[sp,#0]
        0x000012ea:    4ab9        .J      LDR      r2,[pc,#740] ; [0x15d0] = 0xffff
        0x000012ec:    9909        ..      LDR      r1,[sp,#0x24]
        0x000012ee:    980a        ..      LDR      r0,[sp,#0x28]
        0x000012f0:    f7fffe41    ..A.    BL       draw_Bmp16x16 ; 0xf76
        0x000012f4:    e18a        ..      B        0x160c ; main + 1096
        0x000012f6:    e19d        ..      B        0x1634 ; main + 1136
        0x000012f8:    e3fe        ..      B        0x1af8 ; main + 2356
        0x000012fa:    48b2        .H      LDR      r0,[pc,#712] ; [0x15c4] = 0x20000034
        0x000012fc:    8842        B.      LDRH     r2,[r0,#2]
        0x000012fe:    49b5        .I      LDR      r1,[pc,#724] ; [0x15d4] = 0xdac
        0x00001300:    428a        .B      CMP      r2,r1
        0x00001302:    d937        7.      BLS      0x1374 ; main + 432
        0x00001304:    2d6f        o-      CMP      r5,#0x6f
        0x00001306:    d272        r.      BCS      0x13ee ; main + 554
        0x00001308:    4632        2F      MOV      r2,r6
        0x0000130a:    320e        .2      ADDS     r2,r2,#0xe
        0x0000130c:    4295        .B      CMP      r5,r2
        0x0000130e:    d20c        ..      BCS      0x132a ; main + 358
        0x00001310:    462a        *F      MOV      r2,r5
        0x00001312:    320e        .2      ADDS     r2,r2,#0xe
        0x00001314:    42b2        .B      CMP      r2,r6
        0x00001316:    d308        ..      BCC      0x132a ; main + 358
        0x00001318:    4622        "F      MOV      r2,r4
        0x0000131a:    9b03        ..      LDR      r3,[sp,#0xc]
        0x0000131c:    320c        .2      ADDS     r2,r2,#0xc
        0x0000131e:    429a        .B      CMP      r2,r3
        0x00001320:    d903        ..      BLS      0x132a ; main + 358
        0x00001322:    461a        .F      MOV      r2,r3
        0x00001324:    320b        .2      ADDS     r2,r2,#0xb
        0x00001326:    4294        .B      CMP      r4,r2
        0x00001328:    d361        a.      BCC      0x13ee ; main + 554
        0x0000132a:    9a02        ..      LDR      r2,[sp,#8]
        0x0000132c:    320e        .2      ADDS     r2,r2,#0xe
        0x0000132e:    4295        .B      CMP      r5,r2
        0x00001330:    d20d        ..      BCS      0x134e ; main + 394
        0x00001332:    462a        *F      MOV      r2,r5
        0x00001334:    9b02        ..      LDR      r3,[sp,#8]
        0x00001336:    320e        .2      ADDS     r2,r2,#0xe
        0x00001338:    429a        .B      CMP      r2,r3
        0x0000133a:    d308        ..      BCC      0x134e ; main + 394
        0x0000133c:    4622        "F      MOV      r2,r4
        0x0000133e:    9b04        ..      LDR      r3,[sp,#0x10]
        0x00001340:    320c        .2      ADDS     r2,r2,#0xc
        0x00001342:    429a        .B      CMP      r2,r3
        0x00001344:    d903        ..      BLS      0x134e ; main + 394
        0x00001346:    461a        .F      MOV      r2,r3
        0x00001348:    320b        .2      ADDS     r2,r2,#0xb
        0x0000134a:    4294        .B      CMP      r4,r2
        0x0000134c:    d34f        O.      BCC      0x13ee ; main + 554
        0x0000134e:    9a01        ..      LDR      r2,[sp,#4]
        0x00001350:    320e        .2      ADDS     r2,r2,#0xe
        0x00001352:    4295        .B      CMP      r5,r2
        0x00001354:    d20c        ..      BCS      0x1370 ; main + 428
        0x00001356:    462a        *F      MOV      r2,r5
        0x00001358:    9b01        ..      LDR      r3,[sp,#4]
        0x0000135a:    320e        .2      ADDS     r2,r2,#0xe
        0x0000135c:    429a        .B      CMP      r2,r3
        0x0000135e:    d307        ..      BCC      0x1370 ; main + 428
        0x00001360:    4622        "F      MOV      r2,r4
        0x00001362:    320c        .2      ADDS     r2,r2,#0xc
        0x00001364:    42ba        .B      CMP      r2,r7
        0x00001366:    d903        ..      BLS      0x1370 ; main + 428
        0x00001368:    463a        :F      MOV      r2,r7
        0x0000136a:    320b        .2      ADDS     r2,r2,#0xb
        0x0000136c:    4294        .B      CMP      r4,r2
        0x0000136e:    d33e        >.      BCC      0x13ee ; main + 554
        0x00001370:    1ced        ..      ADDS     r5,r5,#3
        0x00001372:    e03b        ;.      B        0x13ec ; main + 552
        0x00001374:    8843        C.      LDRH     r3,[r0,#2]
        0x00001376:    227d        }"      MOVS     r2,#0x7d
        0x00001378:    00d2        ..      LSLS     r2,r2,#3
        0x0000137a:    4293        .B      CMP      r3,r2
        0x0000137c:    d237        7.      BCS      0x13ee ; main + 554
        0x0000137e:    2d00        .-      CMP      r5,#0
        0x00001380:    d035        5.      BEQ      0x13ee ; main + 554
        0x00001382:    4632        2F      MOV      r2,r6
        0x00001384:    320e        .2      ADDS     r2,r2,#0xe
        0x00001386:    4295        .B      CMP      r5,r2
        0x00001388:    d80c        ..      BHI      0x13a4 ; main + 480
        0x0000138a:    462a        *F      MOV      r2,r5
        0x0000138c:    320d        .2      ADDS     r2,r2,#0xd
        0x0000138e:    42b2        .B      CMP      r2,r6
        0x00001390:    d308        ..      BCC      0x13a4 ; main + 480
        0x00001392:    4622        "F      MOV      r2,r4
        0x00001394:    9b03        ..      LDR      r3,[sp,#0xc]
        0x00001396:    320c        .2      ADDS     r2,r2,#0xc
        0x00001398:    429a        .B      CMP      r2,r3
        0x0000139a:    d903        ..      BLS      0x13a4 ; main + 480
        0x0000139c:    461a        .F      MOV      r2,r3
        0x0000139e:    320b        .2      ADDS     r2,r2,#0xb
        0x000013a0:    4294        .B      CMP      r4,r2
        0x000013a2:    d324        $.      BCC      0x13ee ; main + 554
        0x000013a4:    9a02        ..      LDR      r2,[sp,#8]
        0x000013a6:    320e        .2      ADDS     r2,r2,#0xe
        0x000013a8:    4295        .B      CMP      r5,r2
        0x000013aa:    d80d        ..      BHI      0x13c8 ; main + 516
        0x000013ac:    462a        *F      MOV      r2,r5
        0x000013ae:    9b02        ..      LDR      r3,[sp,#8]
        0x000013b0:    320d        .2      ADDS     r2,r2,#0xd
        0x000013b2:    429a        .B      CMP      r2,r3
        0x000013b4:    d308        ..      BCC      0x13c8 ; main + 516
        0x000013b6:    4622        "F      MOV      r2,r4
        0x000013b8:    9b04        ..      LDR      r3,[sp,#0x10]
        0x000013ba:    320c        .2      ADDS     r2,r2,#0xc
        0x000013bc:    429a        .B      CMP      r2,r3
        0x000013be:    d903        ..      BLS      0x13c8 ; main + 516
        0x000013c0:    461a        .F      MOV      r2,r3
        0x000013c2:    320b        .2      ADDS     r2,r2,#0xb
        0x000013c4:    4294        .B      CMP      r4,r2
        0x000013c6:    d312        ..      BCC      0x13ee ; main + 554
        0x000013c8:    9a01        ..      LDR      r2,[sp,#4]
        0x000013ca:    320e        .2      ADDS     r2,r2,#0xe
        0x000013cc:    4295        .B      CMP      r5,r2
        0x000013ce:    d80c        ..      BHI      0x13ea ; main + 550
        0x000013d0:    462a        *F      MOV      r2,r5
        0x000013d2:    9b01        ..      LDR      r3,[sp,#4]
        0x000013d4:    320d        .2      ADDS     r2,r2,#0xd
        0x000013d6:    429a        .B      CMP      r2,r3
        0x000013d8:    d307        ..      BCC      0x13ea ; main + 550
        0x000013da:    4622        "F      MOV      r2,r4
        0x000013dc:    320c        .2      ADDS     r2,r2,#0xc
        0x000013de:    42ba        .B      CMP      r2,r7
        0x000013e0:    d903        ..      BLS      0x13ea ; main + 550
        0x000013e2:    463a        :F      MOV      r2,r7
        0x000013e4:    320b        .2      ADDS     r2,r2,#0xb
        0x000013e6:    4294        .B      CMP      r4,r2
        0x000013e8:    d301        ..      BCC      0x13ee ; main + 554
        0x000013ea:    1eed        ..      SUBS     r5,r5,#3
        0x000013ec:    b2ed        ..      UXTB     r5,r5
        0x000013ee:    8882        ..      LDRH     r2,[r0,#4]
        0x000013f0:    428a        .B      CMP      r2,r1
        0x000013f2:    d932        2.      BLS      0x145a ; main + 662
        0x000013f4:    2c30        0,      CMP      r4,#0x30
        0x000013f6:    d267        g.      BCS      0x14c8 ; main + 772
        0x000013f8:    4628        (F      MOV      r0,r5
        0x000013fa:    300d        .0      ADDS     r0,r0,#0xd
        0x000013fc:    42b0        .B      CMP      r0,r6
        0x000013fe:    d90c        ..      BLS      0x141a ; main + 598
        0x00001400:    4631        1F      MOV      r1,r6
        0x00001402:    310e        .1      ADDS     r1,r1,#0xe
        0x00001404:    428d        .B      CMP      r5,r1
        0x00001406:    d208        ..      BCS      0x141a ; main + 598
        0x00001408:    4621        !F      MOV      r1,r4
        0x0000140a:    9a03        ..      LDR      r2,[sp,#0xc]
        0x0000140c:    310c        .1      ADDS     r1,r1,#0xc
        0x0000140e:    4291        .B      CMP      r1,r2
        0x00001410:    d303        ..      BCC      0x141a ; main + 598
        0x00001412:    4611        .F      MOV      r1,r2
        0x00001414:    310b        .1      ADDS     r1,r1,#0xb
        0x00001416:    428c        .B      CMP      r4,r1
        0x00001418:    d356        V.      BCC      0x14c8 ; main + 772
        0x0000141a:    9902        ..      LDR      r1,[sp,#8]
        0x0000141c:    4288        .B      CMP      r0,r1
        0x0000141e:    d90b        ..      BLS      0x1438 ; main + 628
        0x00001420:    310e        .1      ADDS     r1,r1,#0xe
        0x00001422:    428d        .B      CMP      r5,r1
        0x00001424:    d208        ..      BCS      0x1438 ; main + 628
        0x00001426:    4621        !F      MOV      r1,r4
        0x00001428:    9a04        ..      LDR      r2,[sp,#0x10]
        0x0000142a:    310c        .1      ADDS     r1,r1,#0xc
        0x0000142c:    4291        .B      CMP      r1,r2
        0x0000142e:    d303        ..      BCC      0x1438 ; main + 628
        0x00001430:    4611        .F      MOV      r1,r2
        0x00001432:    310b        .1      ADDS     r1,r1,#0xb
        0x00001434:    428c        .B      CMP      r4,r1
        0x00001436:    d347        G.      BCC      0x14c8 ; main + 772
        0x00001438:    9901        ..      LDR      r1,[sp,#4]
        0x0000143a:    4288        .B      CMP      r0,r1
        0x0000143c:    d90b        ..      BLS      0x1456 ; main + 658
        0x0000143e:    4608        .F      MOV      r0,r1
        0x00001440:    300e        .0      ADDS     r0,r0,#0xe
        0x00001442:    4285        .B      CMP      r5,r0
        0x00001444:    d207        ..      BCS      0x1456 ; main + 658
        0x00001446:    4620         F      MOV      r0,r4
        0x00001448:    300c        .0      ADDS     r0,r0,#0xc
        0x0000144a:    42b8        .B      CMP      r0,r7
        0x0000144c:    d303        ..      BCC      0x1456 ; main + 658
        0x0000144e:    4638        8F      MOV      r0,r7
        0x00001450:    300b        .0      ADDS     r0,r0,#0xb
        0x00001452:    4284        .B      CMP      r4,r0
        0x00001454:    d338        8.      BCC      0x14c8 ; main + 772
        0x00001456:    1ca4        ..      ADDS     r4,r4,#2
        0x00001458:    e035        5.      B        0x14c6 ; main + 770
        0x0000145a:    8881        ..      LDRH     r1,[r0,#4]
        0x0000145c:    207d        }       MOVS     r0,#0x7d
        0x0000145e:    00c0        ..      LSLS     r0,r0,#3
        0x00001460:    4281        .B      CMP      r1,r0
        0x00001462:    d231        1.      BCS      0x14c8 ; main + 772
        0x00001464:    2c00        .,      CMP      r4,#0
        0x00001466:    d02f        /.      BEQ      0x14c8 ; main + 772
        0x00001468:    4628        (F      MOV      r0,r5
        0x0000146a:    300d        .0      ADDS     r0,r0,#0xd
        0x0000146c:    42b0        .B      CMP      r0,r6
        0x0000146e:    d90b        ..      BLS      0x1488 ; main + 708
        0x00001470:    4631        1F      MOV      r1,r6
        0x00001472:    310e        .1      ADDS     r1,r1,#0xe
        0x00001474:    428d        .B      CMP      r5,r1
        0x00001476:    d207        ..      BCS      0x1488 ; main + 708
        0x00001478:    4622        "F      MOV      r2,r4
        0x0000147a:    9903        ..      LDR      r1,[sp,#0xc]
        0x0000147c:    320c        .2      ADDS     r2,r2,#0xc
        0x0000147e:    428a        .B      CMP      r2,r1
        0x00001480:    d902        ..      BLS      0x1488 ; main + 708
        0x00001482:    310c        .1      ADDS     r1,r1,#0xc
        0x00001484:    428c        .B      CMP      r4,r1
        0x00001486:    d91f        ..      BLS      0x14c8 ; main + 772
        0x00001488:    9902        ..      LDR      r1,[sp,#8]
        0x0000148a:    4288        .B      CMP      r0,r1
        0x0000148c:    d90b        ..      BLS      0x14a6 ; main + 738
        0x0000148e:    310e        .1      ADDS     r1,r1,#0xe
        0x00001490:    428d        .B      CMP      r5,r1
        0x00001492:    d208        ..      BCS      0x14a6 ; main + 738
        0x00001494:    4621        !F      MOV      r1,r4
        0x00001496:    9a04        ..      LDR      r2,[sp,#0x10]
        0x00001498:    310c        .1      ADDS     r1,r1,#0xc
        0x0000149a:    4291        .B      CMP      r1,r2
        0x0000149c:    d903        ..      BLS      0x14a6 ; main + 738
        0x0000149e:    4611        .F      MOV      r1,r2
        0x000014a0:    310c        .1      ADDS     r1,r1,#0xc
        0x000014a2:    428c        .B      CMP      r4,r1
        0x000014a4:    d910        ..      BLS      0x14c8 ; main + 772
        0x000014a6:    9901        ..      LDR      r1,[sp,#4]
        0x000014a8:    4288        .B      CMP      r0,r1
        0x000014aa:    d90b        ..      BLS      0x14c4 ; main + 768
        0x000014ac:    4608        .F      MOV      r0,r1
        0x000014ae:    300e        .0      ADDS     r0,r0,#0xe
        0x000014b0:    4285        .B      CMP      r5,r0
        0x000014b2:    d207        ..      BCS      0x14c4 ; main + 768
        0x000014b4:    4620         F      MOV      r0,r4
        0x000014b6:    300c        .0      ADDS     r0,r0,#0xc
        0x000014b8:    42b8        .B      CMP      r0,r7
        0x000014ba:    d903        ..      BLS      0x14c4 ; main + 768
        0x000014bc:    4638        8F      MOV      r0,r7
        0x000014be:    300c        .0      ADDS     r0,r0,#0xc
        0x000014c0:    4284        .B      CMP      r4,r0
        0x000014c2:    d901        ..      BLS      0x14c8 ; main + 772
        0x000014c4:    1ea4        ..      SUBS     r4,r4,#2
        0x000014c6:    b2e4        ..      UXTB     r4,r4
        0x000014c8:    f7fffd18    ....    BL       clear_LCD ; 0xefc
        0x000014cc:    483d        =H      LDR      r0,[pc,#244] ; [0x15c4] = 0x20000034
        0x000014ce:    2300        .#      MOVS     r3,#0
        0x000014d0:    3046        F0      ADDS     r0,r0,#0x46
        0x000014d2:    9000        ..      STR      r0,[sp,#0]
        0x000014d4:    4a3e        >J      LDR      r2,[pc,#248] ; [0x15d0] = 0xffff
        0x000014d6:    4621        !F      MOV      r1,r4
        0x000014d8:    4628        (F      MOV      r0,r5
        0x000014da:    f7fffd4c    ..L.    BL       draw_Bmp16x16 ; 0xf76
        0x000014de:    4839        9H      LDR      r0,[pc,#228] ; [0x15c4] = 0x20000034
        0x000014e0:    2300        .#      MOVS     r3,#0
        0x000014e2:    3066        f0      ADDS     r0,r0,#0x66
        0x000014e4:    9000        ..      STR      r0,[sp,#0]
        0x000014e6:    4a3a        :J      LDR      r2,[pc,#232] ; [0x15d0] = 0xffff
        0x000014e8:    9909        ..      LDR      r1,[sp,#0x24]
        0x000014ea:    980a        ..      LDR      r0,[sp,#0x28]
        0x000014ec:    f7fffd43    ..C.    BL       draw_Bmp16x16 ; 0xf76
        0x000014f0:    4834        4H      LDR      r0,[pc,#208] ; [0x15c4] = 0x20000034
        0x000014f2:    2300        .#      MOVS     r3,#0
        0x000014f4:    3026        &0      ADDS     r0,r0,#0x26
        0x000014f6:    9000        ..      STR      r0,[sp,#0]
        0x000014f8:    4a35        5J      LDR      r2,[pc,#212] ; [0x15d0] = 0xffff
        0x000014fa:    4630        0F      MOV      r0,r6
        0x000014fc:    9903        ..      LDR      r1,[sp,#0xc]
        0x000014fe:    f7fffd3a    ..:.    BL       draw_Bmp16x16 ; 0xf76
        0x00001502:    4830        0H      LDR      r0,[pc,#192] ; [0x15c4] = 0x20000034
        0x00001504:    2300        .#      MOVS     r3,#0
        0x00001506:    3026        &0      ADDS     r0,r0,#0x26
        0x00001508:    9000        ..      STR      r0,[sp,#0]
        0x0000150a:    4a31        1J      LDR      r2,[pc,#196] ; [0x15d0] = 0xffff
        0x0000150c:    9904        ..      LDR      r1,[sp,#0x10]
        0x0000150e:    9802        ..      LDR      r0,[sp,#8]
        0x00001510:    f7fffd31    ..1.    BL       draw_Bmp16x16 ; 0xf76
        0x00001514:    482b        +H      LDR      r0,[pc,#172] ; [0x15c4] = 0x20000034
        0x00001516:    2300        .#      MOVS     r3,#0
        0x00001518:    3026        &0      ADDS     r0,r0,#0x26
        0x0000151a:    9000        ..      STR      r0,[sp,#0]
        0x0000151c:    4a2c        ,J      LDR      r2,[pc,#176] ; [0x15d0] = 0xffff
        0x0000151e:    4639        9F      MOV      r1,r7
        0x00001520:    9801        ..      LDR      r0,[sp,#4]
        0x00001522:    f7fffd28    ..(.    BL       draw_Bmp16x16 ; 0xf76
        0x00001526:    4827        'H      LDR      r0,[pc,#156] ; [0x15c4] = 0x20000034
        0x00001528:    2300        .#      MOVS     r3,#0
        0x0000152a:    30a6        .0      ADDS     r0,r0,#0xa6
        0x0000152c:    9000        ..      STR      r0,[sp,#0]
        0x0000152e:    4a28        (J      LDR      r2,[pc,#160] ; [0x15d0] = 0xffff
        0x00001530:    9908        ..      LDR      r1,[sp,#0x20]
        0x00001532:    980d        ..      LDR      r0,[sp,#0x34]
        0x00001534:    f7fffd1f    ....    BL       draw_Bmp16x16 ; 0xf76
        0x00001538:    4822        "H      LDR      r0,[pc,#136] ; [0x15c4] = 0x20000034
        0x0000153a:    2300        .#      MOVS     r3,#0
        0x0000153c:    1d80        ..      ADDS     r0,r0,#6
        0x0000153e:    9000        ..      STR      r0,[sp,#0]
        0x00001540:    4a23        #J      LDR      r2,[pc,#140] ; [0x15d0] = 0xffff
        0x00001542:    9906        ..      LDR      r1,[sp,#0x18]
        0x00001544:    980e        ..      LDR      r0,[sp,#0x38]
        0x00001546:    f7fffd16    ....    BL       draw_Bmp16x16 ; 0xf76
        0x0000154a:    481e        .H      LDR      r0,[pc,#120] ; [0x15c4] = 0x20000034
        0x0000154c:    2300        .#      MOVS     r3,#0
        0x0000154e:    1d80        ..      ADDS     r0,r0,#6
        0x00001550:    9000        ..      STR      r0,[sp,#0]
        0x00001552:    4a1f        .J      LDR      r2,[pc,#124] ; [0x15d0] = 0xffff
        0x00001554:    9907        ..      LDR      r1,[sp,#0x1c]
        0x00001556:    980c        ..      LDR      r0,[sp,#0x30]
        0x00001558:    f7fffd0d    ....    BL       draw_Bmp16x16 ; 0xf76
        0x0000155c:    4819        .H      LDR      r0,[pc,#100] ; [0x15c4] = 0x20000034
        0x0000155e:    2300        .#      MOVS     r3,#0
        0x00001560:    3086        .0      ADDS     r0,r0,#0x86
        0x00001562:    9000        ..      STR      r0,[sp,#0]
        0x00001564:    4a1a        .J      LDR      r2,[pc,#104] ; [0x15d0] = 0xffff
        0x00001566:    990b        ..      LDR      r1,[sp,#0x2c]
        0x00001568:    9810        ..      LDR      r0,[sp,#0x40]
        0x0000156a:    f7fffd04    ....    BL       draw_Bmp16x16 ; 0xf76
        0x0000156e:    481a        .H      LDR      r0,[pc,#104] ; [0x15d8] = 0xc350
        0x00001570:    f7fff8c4    ....    BL       CLK_SysTickDelay ; 0x6fc
        0x00001574:    4621        !F      MOV      r1,r4
        0x00001576:    4628        (F      MOV      r0,r5
        0x00001578:    9b06        ..      LDR      r3,[sp,#0x18]
        0x0000157a:    9a0e        ..      LDR      r2,[sp,#0x38]
        0x0000157c:    f7fffce8    ....    BL       crash ; 0xf50
        0x00001580:    2800        .(      CMP      r0,#0
        0x00001582:    d117        ..      BNE      0x15b4 ; main + 1008
        0x00001584:    4621        !F      MOV      r1,r4
        0x00001586:    4628        (F      MOV      r0,r5
        0x00001588:    9b0b        ..      LDR      r3,[sp,#0x2c]
        0x0000158a:    9a10        ..      LDR      r2,[sp,#0x40]
        0x0000158c:    f7fffce0    ....    BL       crash ; 0xf50
        0x00001590:    2800        .(      CMP      r0,#0
        0x00001592:    d10f        ..      BNE      0x15b4 ; main + 1008
        0x00001594:    4621        !F      MOV      r1,r4
        0x00001596:    4628        (F      MOV      r0,r5
        0x00001598:    9b07        ..      LDR      r3,[sp,#0x1c]
        0x0000159a:    9a0c        ..      LDR      r2,[sp,#0x30]
        0x0000159c:    f7fffcd8    ....    BL       crash ; 0xf50
        0x000015a0:    2800        .(      CMP      r0,#0
        0x000015a2:    d107        ..      BNE      0x15b4 ; main + 1008
        0x000015a4:    4621        !F      MOV      r1,r4
        0x000015a6:    4628        (F      MOV      r0,r5
        0x000015a8:    9b08        ..      LDR      r3,[sp,#0x20]
        0x000015aa:    9a0d        ..      LDR      r2,[sp,#0x34]
        0x000015ac:    f7fffcd0    ....    BL       crash ; 0xf50
        0x000015b0:    2800        .(      CMP      r0,#0
        0x000015b2:    d013        ..      BEQ      0x15dc ; main + 1048
        0x000015b4:    f7fffca2    ....    BL       clear_LCD ; 0xefc
        0x000015b8:    f000fd96    ....    BL       show ; 0x20e8
        0x000015bc:    f7fffa60    ..`.    BL       ShowLose ; 0xa80
        0x000015c0:    2002        .       MOVS     r0,#2
        0x000015c2:    e3fd        ..      B        0x1dc0 ; main + 3068
    $d
        0x000015c4:    20000034    4..     DCD    536870964
        0x000015c8:    500042c0    .B.P    DCD    1342194368
        0x000015cc:    50004040    @@.P    DCD    1342193728
        0x000015d0:    0000ffff    ....    DCD    65535
        0x000015d4:    00000dac    ....    DCD    3500
        0x000015d8:    0000c350    P...    DCD    50000
    $t
        0x000015dc:    2001        .       MOVS     r0,#1
        0x000015de:    9906        ..      LDR      r1,[sp,#0x18]
        0x000015e0:    f000fd38    ..8.    BL       move_down ; 0x2054
        0x000015e4:    b2c0        ..      UXTB     r0,r0
        0x000015e6:    9006        ..      STR      r0,[sp,#0x18]
        0x000015e8:    2001        .       MOVS     r0,#1
        0x000015ea:    990b        ..      LDR      r1,[sp,#0x2c]
        0x000015ec:    f000fd38    ..8.    BL       move_up ; 0x2060
        0x000015f0:    b2c0        ..      UXTB     r0,r0
        0x000015f2:    900b        ..      STR      r0,[sp,#0x2c]
        0x000015f4:    2001        .       MOVS     r0,#1
        0x000015f6:    9907        ..      LDR      r1,[sp,#0x1c]
        0x000015f8:    f000fd2c    ..,.    BL       move_down ; 0x2054
        0x000015fc:    b2c0        ..      UXTB     r0,r0
        0x000015fe:    9007        ..      STR      r0,[sp,#0x1c]
        0x00001600:    2001        .       MOVS     r0,#1
        0x00001602:    9908        ..      LDR      r1,[sp,#0x20]
        0x00001604:    f000fd2c    ..,.    BL       move_up ; 0x2060
        0x00001608:    b2c0        ..      UXTB     r0,r0
        0x0000160a:    9008        ..      STR      r0,[sp,#0x20]
        0x0000160c:    4628        (F      MOV      r0,r5
        0x0000160e:    990a        ..      LDR      r1,[sp,#0x28]
        0x00001610:    300a        .0      ADDS     r0,r0,#0xa
        0x00001612:    4288        .B      CMP      r0,r1
        0x00001614:    d200        ..      BCS      0x1618 ; main + 1108
        0x00001616:    e670        p.      B        0x12fa ; main + 310
        0x00001618:    4608        .F      MOV      r0,r1
        0x0000161a:    3010        .0      ADDS     r0,r0,#0x10
        0x0000161c:    4285        .B      CMP      r5,r0
        0x0000161e:    d8fa        ..      BHI      0x1616 ; main + 1106
        0x00001620:    9809        ..      LDR      r0,[sp,#0x24]
        0x00001622:    300c        .0      ADDS     r0,r0,#0xc
        0x00001624:    4284        .B      CMP      r4,r0
        0x00001626:    d8f6        ..      BHI      0x1616 ; main + 1106
        0x00001628:    4620         F      MOV      r0,r4
        0x0000162a:    9909        ..      LDR      r1,[sp,#0x24]
        0x0000162c:    300e        .0      ADDS     r0,r0,#0xe
        0x0000162e:    4288        .B      CMP      r0,r1
        0x00001630:    d3f1        ..      BCC      0x1616 ; main + 1106
        0x00001632:    e299        ..      B        0x1b68 ; main + 2468
        0x00001634:    2010        .       MOVS     r0,#0x10
        0x00001636:    900e        ..      STR      r0,[sp,#0x38]
        0x00001638:    9006        ..      STR      r0,[sp,#0x18]
        0x0000163a:    2021        !       MOVS     r0,#0x21
        0x0000163c:    9010        ..      STR      r0,[sp,#0x40]
        0x0000163e:    202f        /       MOVS     r0,#0x2f
        0x00001640:    900b        ..      STR      r0,[sp,#0x2c]
        0x00001642:    2010        .       MOVS     r0,#0x10
        0x00001644:    9016        ..      STR      r0,[sp,#0x58]
        0x00001646:    201e        .       MOVS     r0,#0x1e
        0x00001648:    9014        ..      STR      r0,[sp,#0x50]
        0x0000164a:    2070        p       MOVS     r0,#0x70
        0x0000164c:    900a        ..      STR      r0,[sp,#0x28]
        0x0000164e:    200f        .       MOVS     r0,#0xf
        0x00001650:    9009        ..      STR      r0,[sp,#0x24]
        0x00001652:    2030        0       MOVS     r0,#0x30
        0x00001654:    900d        ..      STR      r0,[sp,#0x34]
        0x00001656:    202f        /       MOVS     r0,#0x2f
        0x00001658:    9008        ..      STR      r0,[sp,#0x20]
        0x0000165a:    205f        _       MOVS     r0,#0x5f
        0x0000165c:    9012        ..      STR      r0,[sp,#0x48]
        0x0000165e:    2000        .       MOVS     r0,#0
        0x00001660:    9011        ..      STR      r0,[sp,#0x44]
        0x00001662:    2040        @       MOVS     r0,#0x40
        0x00001664:    9004        ..      STR      r0,[sp,#0x10]
        0x00001666:    2011        .       MOVS     r0,#0x11
        0x00001668:    9003        ..      STR      r0,[sp,#0xc]
        0x0000166a:    2070        p       MOVS     r0,#0x70
        0x0000166c:    900f        ..      STR      r0,[sp,#0x3c]
        0x0000166e:    2040        @       MOVS     r0,#0x40
        0x00001670:    9002        ..      STR      r0,[sp,#8]
        0x00001672:    205f        _       MOVS     r0,#0x5f
        0x00001674:    9001        ..      STR      r0,[sp,#4]
        0x00001676:    2021        !       MOVS     r0,#0x21
        0x00001678:    9005        ..      STR      r0,[sp,#0x14]
        0x0000167a:    2052        R       MOVS     r0,#0x52
        0x0000167c:    2500        .%      MOVS     r5,#0
        0x0000167e:    241f        .$      MOVS     r4,#0x1f
        0x00001680:    262a        *&      MOVS     r6,#0x2a
        0x00001682:    272f        /'      MOVS     r7,#0x2f
        0x00001684:    900c        ..      STR      r0,[sp,#0x30]
        0x00001686:    2000        .       MOVS     r0,#0
        0x00001688:    9007        ..      STR      r0,[sp,#0x1c]
        0x0000168a:    48fe        .H      LDR      r0,[pc,#1016] ; [0x1a84] = 0x2000007a
        0x0000168c:    9000        ..      STR      r0,[sp,#0]
        0x0000168e:    2300        .#      MOVS     r3,#0
        0x00001690:    4afd        .J      LDR      r2,[pc,#1012] ; [0x1a88] = 0xffff
        0x00001692:    4621        !F      MOV      r1,r4
        0x00001694:    4628        (F      MOV      r0,r5
        0x00001696:    f7fffc6e    ..n.    BL       draw_Bmp16x16 ; 0xf76
        0x0000169a:    48fa        .H      LDR      r0,[pc,#1000] ; [0x1a84] = 0x2000007a
        0x0000169c:    2300        .#      MOVS     r3,#0
        0x0000169e:    3060        `0      ADDS     r0,r0,#0x60
        0x000016a0:    9000        ..      STR      r0,[sp,#0]
        0x000016a2:    4af9        .J      LDR      r2,[pc,#996] ; [0x1a88] = 0xffff
        0x000016a4:    9908        ..      LDR      r1,[sp,#0x20]
        0x000016a6:    980d        ..      LDR      r0,[sp,#0x34]
        0x000016a8:    f7fffc65    ..e.    BL       draw_Bmp16x16 ; 0xf76
        0x000016ac:    48f5        .H      LDR      r0,[pc,#980] ; [0x1a84] = 0x2000007a
        0x000016ae:    2300        .#      MOVS     r3,#0
        0x000016b0:    3060        `0      ADDS     r0,r0,#0x60
        0x000016b2:    9000        ..      STR      r0,[sp,#0]
        0x000016b4:    4af4        .J      LDR      r2,[pc,#976] ; [0x1a88] = 0xffff
        0x000016b6:    9911        ..      LDR      r1,[sp,#0x44]
        0x000016b8:    9812        ..      LDR      r0,[sp,#0x48]
        0x000016ba:    f7fffc5c    ..\.    BL       draw_Bmp16x16 ; 0xf76
        0x000016be:    48f1        .H      LDR      r0,[pc,#964] ; [0x1a84] = 0x2000007a
        0x000016c0:    2300        .#      MOVS     r3,#0
        0x000016c2:    3840        @8      SUBS     r0,r0,#0x40
        0x000016c4:    9000        ..      STR      r0,[sp,#0]
        0x000016c6:    4af0        .J      LDR      r2,[pc,#960] ; [0x1a88] = 0xffff
        0x000016c8:    9906        ..      LDR      r1,[sp,#0x18]
        0x000016ca:    980e        ..      LDR      r0,[sp,#0x38]
        0x000016cc:    f7fffc53    ..S.    BL       draw_Bmp16x16 ; 0xf76
        0x000016d0:    48ec        .H      LDR      r0,[pc,#944] ; [0x1a84] = 0x2000007a
        0x000016d2:    2300        .#      MOVS     r3,#0
        0x000016d4:    3840        @8      SUBS     r0,r0,#0x40
        0x000016d6:    9000        ..      STR      r0,[sp,#0]
        0x000016d8:    4aeb        .J      LDR      r2,[pc,#940] ; [0x1a88] = 0xffff
        0x000016da:    9907        ..      LDR      r1,[sp,#0x1c]
        0x000016dc:    980c        ..      LDR      r0,[sp,#0x30]
        0x000016de:    f7fffc4a    ..J.    BL       draw_Bmp16x16 ; 0xf76
        0x000016e2:    48e8        .H      LDR      r0,[pc,#928] ; [0x1a84] = 0x2000007a
        0x000016e4:    2300        .#      MOVS     r3,#0
        0x000016e6:    3840        @8      SUBS     r0,r0,#0x40
        0x000016e8:    9000        ..      STR      r0,[sp,#0]
        0x000016ea:    4ae7        .J      LDR      r2,[pc,#924] ; [0x1a88] = 0xffff
        0x000016ec:    9914        ..      LDR      r1,[sp,#0x50]
        0x000016ee:    9816        ..      LDR      r0,[sp,#0x58]
        0x000016f0:    f7fffc41    ..A.    BL       draw_Bmp16x16 ; 0xf76
        0x000016f4:    48e3        .H      LDR      r0,[pc,#908] ; [0x1a84] = 0x2000007a
        0x000016f6:    2300        .#      MOVS     r3,#0
        0x000016f8:    3040        @0      ADDS     r0,r0,#0x40
        0x000016fa:    9000        ..      STR      r0,[sp,#0]
        0x000016fc:    4ae2        .J      LDR      r2,[pc,#904] ; [0x1a88] = 0xffff
        0x000016fe:    990b        ..      LDR      r1,[sp,#0x2c]
        0x00001700:    9810        ..      LDR      r0,[sp,#0x40]
        0x00001702:    f7fffc38    ..8.    BL       draw_Bmp16x16 ; 0xf76
        0x00001706:    48df        .H      LDR      r0,[pc,#892] ; [0x1a84] = 0x2000007a
        0x00001708:    2300        .#      MOVS     r3,#0
        0x0000170a:    3820         8      SUBS     r0,r0,#0x20
        0x0000170c:    9000        ..      STR      r0,[sp,#0]
        0x0000170e:    4ade        .J      LDR      r2,[pc,#888] ; [0x1a88] = 0xffff
        0x00001710:    9903        ..      LDR      r1,[sp,#0xc]
        0x00001712:    9804        ..      LDR      r0,[sp,#0x10]
        0x00001714:    f7fffc2f    ../.    BL       draw_Bmp16x16 ; 0xf76
        0x00001718:    48da        .H      LDR      r0,[pc,#872] ; [0x1a84] = 0x2000007a
        0x0000171a:    2300        .#      MOVS     r3,#0
        0x0000171c:    3820         8      SUBS     r0,r0,#0x20
        0x0000171e:    9000        ..      STR      r0,[sp,#0]
        0x00001720:    4ad9        .J      LDR      r2,[pc,#868] ; [0x1a88] = 0xffff
        0x00001722:    4631        1F      MOV      r1,r6
        0x00001724:    980f        ..      LDR      r0,[sp,#0x3c]
        0x00001726:    f7fffc26    ..&.    BL       draw_Bmp16x16 ; 0xf76
        0x0000172a:    48d6        .H      LDR      r0,[pc,#856] ; [0x1a84] = 0x2000007a
        0x0000172c:    2300        .#      MOVS     r3,#0
        0x0000172e:    3820         8      SUBS     r0,r0,#0x20
        0x00001730:    9000        ..      STR      r0,[sp,#0]
        0x00001732:    4ad5        .J      LDR      r2,[pc,#852] ; [0x1a88] = 0xffff
        0x00001734:    4639        9F      MOV      r1,r7
        0x00001736:    9802        ..      LDR      r0,[sp,#8]
        0x00001738:    f7fffc1d    ....    BL       draw_Bmp16x16 ; 0xf76
        0x0000173c:    48d1        .H      LDR      r0,[pc,#836] ; [0x1a84] = 0x2000007a
        0x0000173e:    2300        .#      MOVS     r3,#0
        0x00001740:    3820         8      SUBS     r0,r0,#0x20
        0x00001742:    9000        ..      STR      r0,[sp,#0]
        0x00001744:    4ad0        .J      LDR      r2,[pc,#832] ; [0x1a88] = 0xffff
        0x00001746:    9905        ..      LDR      r1,[sp,#0x14]
        0x00001748:    9801        ..      LDR      r0,[sp,#4]
        0x0000174a:    f7fffc14    ....    BL       draw_Bmp16x16 ; 0xf76
        0x0000174e:    48cd        .H      LDR      r0,[pc,#820] ; [0x1a84] = 0x2000007a
        0x00001750:    2300        .#      MOVS     r3,#0
        0x00001752:    3020         0      ADDS     r0,r0,#0x20
        0x00001754:    9000        ..      STR      r0,[sp,#0]
        0x00001756:    4acc        .J      LDR      r2,[pc,#816] ; [0x1a88] = 0xffff
        0x00001758:    9909        ..      LDR      r1,[sp,#0x24]
        0x0000175a:    980a        ..      LDR      r0,[sp,#0x28]
        0x0000175c:    f7fffc0b    ....    BL       draw_Bmp16x16 ; 0xf76
        0x00001760:    e1ef        ..      B        0x1b42 ; main + 2430
        0x00001762:    48c8        .H      LDR      r0,[pc,#800] ; [0x1a84] = 0x2000007a
        0x00001764:    3846        F8      SUBS     r0,r0,#0x46
        0x00001766:    8840        @.      LDRH     r0,[r0,#2]
        0x00001768:    49c8        .I      LDR      r1,[pc,#800] ; [0x1a8c] = 0xdac
        0x0000176a:    4288        .B      CMP      r0,r1
        0x0000176c:    d940        @.      BLS      0x17f0 ; main + 1580
        0x0000176e:    2d6f        o-      CMP      r5,#0x6f
        0x00001770:    d27e        ~.      BCS      0x1870 ; main + 1708
        0x00001772:    4628        (F      MOV      r0,r5
        0x00001774:    9a04        ..      LDR      r2,[sp,#0x10]
        0x00001776:    3010        .0      ADDS     r0,r0,#0x10
        0x00001778:    4290        .B      CMP      r0,r2
        0x0000177a:    d90b        ..      BLS      0x1794 ; main + 1488
        0x0000177c:    320e        .2      ADDS     r2,r2,#0xe
        0x0000177e:    4295        .B      CMP      r5,r2
        0x00001780:    d208        ..      BCS      0x1794 ; main + 1488
        0x00001782:    4622        "F      MOV      r2,r4
        0x00001784:    9b03        ..      LDR      r3,[sp,#0xc]
        0x00001786:    320c        .2      ADDS     r2,r2,#0xc
        0x00001788:    429a        .B      CMP      r2,r3
        0x0000178a:    d903        ..      BLS      0x1794 ; main + 1488
        0x0000178c:    461a        .F      MOV      r2,r3
        0x0000178e:    320b        .2      ADDS     r2,r2,#0xb
        0x00001790:    4294        .B      CMP      r4,r2
        0x00001792:    d377        w.      BCC      0x1884 ; main + 1728
        0x00001794:    9a0f        ..      LDR      r2,[sp,#0x3c]
        0x00001796:    4290        .B      CMP      r0,r2
        0x00001798:    d90a        ..      BLS      0x17b0 ; main + 1516
        0x0000179a:    320e        .2      ADDS     r2,r2,#0xe
        0x0000179c:    4295        .B      CMP      r5,r2
        0x0000179e:    d207        ..      BCS      0x17b0 ; main + 1516
        0x000017a0:    4622        "F      MOV      r2,r4
        0x000017a2:    320c        .2      ADDS     r2,r2,#0xc
        0x000017a4:    42b2        .B      CMP      r2,r6
        0x000017a6:    d903        ..      BLS      0x17b0 ; main + 1516
        0x000017a8:    4632        2F      MOV      r2,r6
        0x000017aa:    320b        .2      ADDS     r2,r2,#0xb
        0x000017ac:    4294        .B      CMP      r4,r2
        0x000017ae:    d369        i.      BCC      0x1884 ; main + 1728
        0x000017b0:    9a02        ..      LDR      r2,[sp,#8]
        0x000017b2:    4290        .B      CMP      r0,r2
        0x000017b4:    d90a        ..      BLS      0x17cc ; main + 1544
        0x000017b6:    320e        .2      ADDS     r2,r2,#0xe
        0x000017b8:    4295        .B      CMP      r5,r2
        0x000017ba:    d207        ..      BCS      0x17cc ; main + 1544
        0x000017bc:    4622        "F      MOV      r2,r4
        0x000017be:    320c        .2      ADDS     r2,r2,#0xc
        0x000017c0:    42ba        .B      CMP      r2,r7
        0x000017c2:    d903        ..      BLS      0x17cc ; main + 1544
        0x000017c4:    463a        :F      MOV      r2,r7
        0x000017c6:    320b        .2      ADDS     r2,r2,#0xb
        0x000017c8:    4294        .B      CMP      r4,r2
        0x000017ca:    d35b        [.      BCC      0x1884 ; main + 1728
        0x000017cc:    9a01        ..      LDR      r2,[sp,#4]
        0x000017ce:    4290        .B      CMP      r0,r2
        0x000017d0:    d90c        ..      BLS      0x17ec ; main + 1576
        0x000017d2:    4610        .F      MOV      r0,r2
        0x000017d4:    300e        .0      ADDS     r0,r0,#0xe
        0x000017d6:    4285        .B      CMP      r5,r0
        0x000017d8:    d208        ..      BCS      0x17ec ; main + 1576
        0x000017da:    4620         F      MOV      r0,r4
        0x000017dc:    9a05        ..      LDR      r2,[sp,#0x14]
        0x000017de:    300c        .0      ADDS     r0,r0,#0xc
        0x000017e0:    4290        .B      CMP      r0,r2
        0x000017e2:    d903        ..      BLS      0x17ec ; main + 1576
        0x000017e4:    4610        .F      MOV      r0,r2
        0x000017e6:    300b        .0      ADDS     r0,r0,#0xb
        0x000017e8:    4284        .B      CMP      r4,r0
        0x000017ea:    d34b        K.      BCC      0x1884 ; main + 1728
        0x000017ec:    1ced        ..      ADDS     r5,r5,#3
        0x000017ee:    e048        H.      B        0x1882 ; main + 1726
        0x000017f0:    48a4        .H      LDR      r0,[pc,#656] ; [0x1a84] = 0x2000007a
        0x000017f2:    3846        F8      SUBS     r0,r0,#0x46
        0x000017f4:    8842        B.      LDRH     r2,[r0,#2]
        0x000017f6:    207d        }       MOVS     r0,#0x7d
        0x000017f8:    00c0        ..      LSLS     r0,r0,#3
        0x000017fa:    4282        .B      CMP      r2,r0
        0x000017fc:    d242        B.      BCS      0x1884 ; main + 1728
        0x000017fe:    2d00        .-      CMP      r5,#0
        0x00001800:    d040        @.      BEQ      0x1884 ; main + 1728
        0x00001802:    4628        (F      MOV      r0,r5
        0x00001804:    9a04        ..      LDR      r2,[sp,#0x10]
        0x00001806:    300d        .0      ADDS     r0,r0,#0xd
        0x00001808:    4290        .B      CMP      r0,r2
        0x0000180a:    d90b        ..      BLS      0x1824 ; main + 1632
        0x0000180c:    320e        .2      ADDS     r2,r2,#0xe
        0x0000180e:    4295        .B      CMP      r5,r2
        0x00001810:    d808        ..      BHI      0x1824 ; main + 1632
        0x00001812:    4622        "F      MOV      r2,r4
        0x00001814:    9b03        ..      LDR      r3,[sp,#0xc]
        0x00001816:    320c        .2      ADDS     r2,r2,#0xc
        0x00001818:    429a        .B      CMP      r2,r3
        0x0000181a:    d903        ..      BLS      0x1824 ; main + 1632
        0x0000181c:    461a        .F      MOV      r2,r3
        0x0000181e:    320b        .2      ADDS     r2,r2,#0xb
        0x00001820:    4294        .B      CMP      r4,r2
        0x00001822:    d32f        /.      BCC      0x1884 ; main + 1728
        0x00001824:    9a0f        ..      LDR      r2,[sp,#0x3c]
        0x00001826:    4290        .B      CMP      r0,r2
        0x00001828:    d90a        ..      BLS      0x1840 ; main + 1660
        0x0000182a:    320e        .2      ADDS     r2,r2,#0xe
        0x0000182c:    4295        .B      CMP      r5,r2
        0x0000182e:    d807        ..      BHI      0x1840 ; main + 1660
        0x00001830:    4622        "F      MOV      r2,r4
        0x00001832:    320c        .2      ADDS     r2,r2,#0xc
        0x00001834:    42b2        .B      CMP      r2,r6
        0x00001836:    d903        ..      BLS      0x1840 ; main + 1660
        0x00001838:    4632        2F      MOV      r2,r6
        0x0000183a:    320b        .2      ADDS     r2,r2,#0xb
        0x0000183c:    4294        .B      CMP      r4,r2
        0x0000183e:    d321        !.      BCC      0x1884 ; main + 1728
        0x00001840:    9a02        ..      LDR      r2,[sp,#8]
        0x00001842:    4290        .B      CMP      r0,r2
        0x00001844:    d90a        ..      BLS      0x185c ; main + 1688
        0x00001846:    320e        .2      ADDS     r2,r2,#0xe
        0x00001848:    4295        .B      CMP      r5,r2
        0x0000184a:    d807        ..      BHI      0x185c ; main + 1688
        0x0000184c:    4622        "F      MOV      r2,r4
        0x0000184e:    320c        .2      ADDS     r2,r2,#0xc
        0x00001850:    42ba        .B      CMP      r2,r7
        0x00001852:    d903        ..      BLS      0x185c ; main + 1688
        0x00001854:    463a        :F      MOV      r2,r7
        0x00001856:    320b        .2      ADDS     r2,r2,#0xb
        0x00001858:    4294        .B      CMP      r4,r2
        0x0000185a:    d313        ..      BCC      0x1884 ; main + 1728
        0x0000185c:    9a01        ..      LDR      r2,[sp,#4]
        0x0000185e:    4290        .B      CMP      r0,r2
        0x00001860:    d90e        ..      BLS      0x1880 ; main + 1724
        0x00001862:    4610        .F      MOV      r0,r2
        0x00001864:    300e        .0      ADDS     r0,r0,#0xe
        0x00001866:    4285        .B      CMP      r5,r0
        0x00001868:    d80a        ..      BHI      0x1880 ; main + 1724
        0x0000186a:    4620         F      MOV      r0,r4
        0x0000186c:    300c        .0      ADDS     r0,r0,#0xc
        0x0000186e:    e000        ..      B        0x1872 ; main + 1710
        0x00001870:    e008        ..      B        0x1884 ; main + 1728
        0x00001872:    9a05        ..      LDR      r2,[sp,#0x14]
        0x00001874:    4290        .B      CMP      r0,r2
        0x00001876:    d903        ..      BLS      0x1880 ; main + 1724
        0x00001878:    4610        .F      MOV      r0,r2
        0x0000187a:    300b        .0      ADDS     r0,r0,#0xb
        0x0000187c:    4284        .B      CMP      r4,r0
        0x0000187e:    d301        ..      BCC      0x1884 ; main + 1728
        0x00001880:    1eed        ..      SUBS     r5,r5,#3
        0x00001882:    b2ed        ..      UXTB     r5,r5
        0x00001884:    487f        .H      LDR      r0,[pc,#508] ; [0x1a84] = 0x2000007a
        0x00001886:    3846        F8      SUBS     r0,r0,#0x46
        0x00001888:    8882        ..      LDRH     r2,[r0,#4]
        0x0000188a:    428a        .B      CMP      r2,r1
        0x0000188c:    d93f        ?.      BLS      0x190e ; main + 1866
        0x0000188e:    2c2f        /,      CMP      r4,#0x2f
        0x00001890:    d27e        ~.      BCS      0x1990 ; main + 1996
        0x00001892:    4628        (F      MOV      r0,r5
        0x00001894:    9904        ..      LDR      r1,[sp,#0x10]
        0x00001896:    300d        .0      ADDS     r0,r0,#0xd
        0x00001898:    4288        .B      CMP      r0,r1
        0x0000189a:    d90b        ..      BLS      0x18b4 ; main + 1776
        0x0000189c:    310e        .1      ADDS     r1,r1,#0xe
        0x0000189e:    428d        .B      CMP      r5,r1
        0x000018a0:    d208        ..      BCS      0x18b4 ; main + 1776
        0x000018a2:    4621        !F      MOV      r1,r4
        0x000018a4:    9a03        ..      LDR      r2,[sp,#0xc]
        0x000018a6:    310c        .1      ADDS     r1,r1,#0xc
        0x000018a8:    4291        .B      CMP      r1,r2
        0x000018aa:    d303        ..      BCC      0x18b4 ; main + 1776
        0x000018ac:    4611        .F      MOV      r1,r2
        0x000018ae:    310b        .1      ADDS     r1,r1,#0xb
        0x000018b0:    428c        .B      CMP      r4,r1
        0x000018b2:    d374        t.      BCC      0x199e ; main + 2010
        0x000018b4:    990f        ..      LDR      r1,[sp,#0x3c]
        0x000018b6:    4288        .B      CMP      r0,r1
        0x000018b8:    d90a        ..      BLS      0x18d0 ; main + 1804
        0x000018ba:    310e        .1      ADDS     r1,r1,#0xe
        0x000018bc:    428d        .B      CMP      r5,r1
        0x000018be:    d207        ..      BCS      0x18d0 ; main + 1804
        0x000018c0:    4621        !F      MOV      r1,r4
        0x000018c2:    310c        .1      ADDS     r1,r1,#0xc
        0x000018c4:    42b1        .B      CMP      r1,r6
        0x000018c6:    d303        ..      BCC      0x18d0 ; main + 1804
        0x000018c8:    4631        1F      MOV      r1,r6
        0x000018ca:    310b        .1      ADDS     r1,r1,#0xb
        0x000018cc:    428c        .B      CMP      r4,r1
        0x000018ce:    d366        f.      BCC      0x199e ; main + 2010
        0x000018d0:    9902        ..      LDR      r1,[sp,#8]
        0x000018d2:    4288        .B      CMP      r0,r1
        0x000018d4:    d90a        ..      BLS      0x18ec ; main + 1832
        0x000018d6:    310e        .1      ADDS     r1,r1,#0xe
        0x000018d8:    428d        .B      CMP      r5,r1
        0x000018da:    d207        ..      BCS      0x18ec ; main + 1832
        0x000018dc:    4621        !F      MOV      r1,r4
        0x000018de:    310c        .1      ADDS     r1,r1,#0xc
        0x000018e0:    42b9        .B      CMP      r1,r7
        0x000018e2:    d303        ..      BCC      0x18ec ; main + 1832
        0x000018e4:    4639        9F      MOV      r1,r7
        0x000018e6:    310b        .1      ADDS     r1,r1,#0xb
        0x000018e8:    428c        .B      CMP      r4,r1
        0x000018ea:    d358        X.      BCC      0x199e ; main + 2010
        0x000018ec:    9901        ..      LDR      r1,[sp,#4]
        0x000018ee:    4288        .B      CMP      r0,r1
        0x000018f0:    d90b        ..      BLS      0x190a ; main + 1862
        0x000018f2:    4608        .F      MOV      r0,r1
        0x000018f4:    300e        .0      ADDS     r0,r0,#0xe
        0x000018f6:    4285        .B      CMP      r5,r0
        0x000018f8:    d207        ..      BCS      0x190a ; main + 1862
        0x000018fa:    4621        !F      MOV      r1,r4
        0x000018fc:    9805        ..      LDR      r0,[sp,#0x14]
        0x000018fe:    310c        .1      ADDS     r1,r1,#0xc
        0x00001900:    4281        .B      CMP      r1,r0
        0x00001902:    d302        ..      BCC      0x190a ; main + 1862
        0x00001904:    300b        .0      ADDS     r0,r0,#0xb
        0x00001906:    4284        .B      CMP      r4,r0
        0x00001908:    d349        I.      BCC      0x199e ; main + 2010
        0x0000190a:    1ca4        ..      ADDS     r4,r4,#2
        0x0000190c:    e046        F.      B        0x199c ; main + 2008
        0x0000190e:    8881        ..      LDRH     r1,[r0,#4]
        0x00001910:    207d        }       MOVS     r0,#0x7d
        0x00001912:    00c0        ..      LSLS     r0,r0,#3
        0x00001914:    4281        .B      CMP      r1,r0
        0x00001916:    d242        B.      BCS      0x199e ; main + 2010
        0x00001918:    2c01        .,      CMP      r4,#1
        0x0000191a:    d940        @.      BLS      0x199e ; main + 2010
        0x0000191c:    4628        (F      MOV      r0,r5
        0x0000191e:    9904        ..      LDR      r1,[sp,#0x10]
        0x00001920:    300d        .0      ADDS     r0,r0,#0xd
        0x00001922:    4288        .B      CMP      r0,r1
        0x00001924:    d90b        ..      BLS      0x193e ; main + 1914
        0x00001926:    310e        .1      ADDS     r1,r1,#0xe
        0x00001928:    428d        .B      CMP      r5,r1
        0x0000192a:    d208        ..      BCS      0x193e ; main + 1914
        0x0000192c:    4621        !F      MOV      r1,r4
        0x0000192e:    9a03        ..      LDR      r2,[sp,#0xc]
        0x00001930:    310c        .1      ADDS     r1,r1,#0xc
        0x00001932:    4291        .B      CMP      r1,r2
        0x00001934:    d903        ..      BLS      0x193e ; main + 1914
        0x00001936:    4611        .F      MOV      r1,r2
        0x00001938:    310c        .1      ADDS     r1,r1,#0xc
        0x0000193a:    428c        .B      CMP      r4,r1
        0x0000193c:    d92f        /.      BLS      0x199e ; main + 2010
        0x0000193e:    990f        ..      LDR      r1,[sp,#0x3c]
        0x00001940:    4288        .B      CMP      r0,r1
        0x00001942:    d90a        ..      BLS      0x195a ; main + 1942
        0x00001944:    310e        .1      ADDS     r1,r1,#0xe
        0x00001946:    428d        .B      CMP      r5,r1
        0x00001948:    d207        ..      BCS      0x195a ; main + 1942
        0x0000194a:    4621        !F      MOV      r1,r4
        0x0000194c:    310c        .1      ADDS     r1,r1,#0xc
        0x0000194e:    42b1        .B      CMP      r1,r6
        0x00001950:    d903        ..      BLS      0x195a ; main + 1942
        0x00001952:    4631        1F      MOV      r1,r6
        0x00001954:    310c        .1      ADDS     r1,r1,#0xc
        0x00001956:    428c        .B      CMP      r4,r1
        0x00001958:    d921        !.      BLS      0x199e ; main + 2010
        0x0000195a:    9902        ..      LDR      r1,[sp,#8]
        0x0000195c:    4288        .B      CMP      r0,r1
        0x0000195e:    d90a        ..      BLS      0x1976 ; main + 1970
        0x00001960:    310e        .1      ADDS     r1,r1,#0xe
        0x00001962:    428d        .B      CMP      r5,r1
        0x00001964:    d207        ..      BCS      0x1976 ; main + 1970
        0x00001966:    4621        !F      MOV      r1,r4
        0x00001968:    310c        .1      ADDS     r1,r1,#0xc
        0x0000196a:    42b9        .B      CMP      r1,r7
        0x0000196c:    d903        ..      BLS      0x1976 ; main + 1970
        0x0000196e:    4639        9F      MOV      r1,r7
        0x00001970:    310c        .1      ADDS     r1,r1,#0xc
        0x00001972:    428c        .B      CMP      r4,r1
        0x00001974:    d913        ..      BLS      0x199e ; main + 2010
        0x00001976:    9901        ..      LDR      r1,[sp,#4]
        0x00001978:    4288        .B      CMP      r0,r1
        0x0000197a:    d90e        ..      BLS      0x199a ; main + 2006
        0x0000197c:    4608        .F      MOV      r0,r1
        0x0000197e:    300e        .0      ADDS     r0,r0,#0xe
        0x00001980:    4285        .B      CMP      r5,r0
        0x00001982:    d20a        ..      BCS      0x199a ; main + 2006
        0x00001984:    4620         F      MOV      r0,r4
        0x00001986:    9905        ..      LDR      r1,[sp,#0x14]
        0x00001988:    300c        .0      ADDS     r0,r0,#0xc
        0x0000198a:    4288        .B      CMP      r0,r1
        0x0000198c:    d905        ..      BLS      0x199a ; main + 2006
        0x0000198e:    e000        ..      B        0x1992 ; main + 1998
        0x00001990:    e005        ..      B        0x199e ; main + 2010
        0x00001992:    4608        .F      MOV      r0,r1
        0x00001994:    300c        .0      ADDS     r0,r0,#0xc
        0x00001996:    4284        .B      CMP      r4,r0
        0x00001998:    d901        ..      BLS      0x199e ; main + 2010
        0x0000199a:    1ea4        ..      SUBS     r4,r4,#2
        0x0000199c:    b2e4        ..      UXTB     r4,r4
        0x0000199e:    f7fffaad    ....    BL       clear_LCD ; 0xefc
        0x000019a2:    4838        8H      LDR      r0,[pc,#224] ; [0x1a84] = 0x2000007a
        0x000019a4:    9000        ..      STR      r0,[sp,#0]
        0x000019a6:    2300        .#      MOVS     r3,#0
        0x000019a8:    4a37        7J      LDR      r2,[pc,#220] ; [0x1a88] = 0xffff
        0x000019aa:    4621        !F      MOV      r1,r4
        0x000019ac:    4628        (F      MOV      r0,r5
        0x000019ae:    f7fffae2    ....    BL       draw_Bmp16x16 ; 0xf76
        0x000019b2:    4834        4H      LDR      r0,[pc,#208] ; [0x1a84] = 0x2000007a
        0x000019b4:    2300        .#      MOVS     r3,#0
        0x000019b6:    3020         0      ADDS     r0,r0,#0x20
        0x000019b8:    9000        ..      STR      r0,[sp,#0]
        0x000019ba:    4a33        3J      LDR      r2,[pc,#204] ; [0x1a88] = 0xffff
        0x000019bc:    9909        ..      LDR      r1,[sp,#0x24]
        0x000019be:    980a        ..      LDR      r0,[sp,#0x28]
        0x000019c0:    f7fffad9    ....    BL       draw_Bmp16x16 ; 0xf76
        0x000019c4:    482f        /H      LDR      r0,[pc,#188] ; [0x1a84] = 0x2000007a
        0x000019c6:    2300        .#      MOVS     r3,#0
        0x000019c8:    3820         8      SUBS     r0,r0,#0x20
        0x000019ca:    9000        ..      STR      r0,[sp,#0]
        0x000019cc:    4a2e        .J      LDR      r2,[pc,#184] ; [0x1a88] = 0xffff
        0x000019ce:    9903        ..      LDR      r1,[sp,#0xc]
        0x000019d0:    9804        ..      LDR      r0,[sp,#0x10]
        0x000019d2:    f7fffad0    ....    BL       draw_Bmp16x16 ; 0xf76
        0x000019d6:    482b        +H      LDR      r0,[pc,#172] ; [0x1a84] = 0x2000007a
        0x000019d8:    2300        .#      MOVS     r3,#0
        0x000019da:    3820         8      SUBS     r0,r0,#0x20
        0x000019dc:    9000        ..      STR      r0,[sp,#0]
        0x000019de:    4a2a        *J      LDR      r2,[pc,#168] ; [0x1a88] = 0xffff
        0x000019e0:    4631        1F      MOV      r1,r6
        0x000019e2:    980f        ..      LDR      r0,[sp,#0x3c]
        0x000019e4:    f7fffac7    ....    BL       draw_Bmp16x16 ; 0xf76
        0x000019e8:    4826        &H      LDR      r0,[pc,#152] ; [0x1a84] = 0x2000007a
        0x000019ea:    2300        .#      MOVS     r3,#0
        0x000019ec:    3820         8      SUBS     r0,r0,#0x20
        0x000019ee:    9000        ..      STR      r0,[sp,#0]
        0x000019f0:    4a25        %J      LDR      r2,[pc,#148] ; [0x1a88] = 0xffff
        0x000019f2:    4639        9F      MOV      r1,r7
        0x000019f4:    9802        ..      LDR      r0,[sp,#8]
        0x000019f6:    f7fffabe    ....    BL       draw_Bmp16x16 ; 0xf76
        0x000019fa:    4822        "H      LDR      r0,[pc,#136] ; [0x1a84] = 0x2000007a
        0x000019fc:    2300        .#      MOVS     r3,#0
        0x000019fe:    3820         8      SUBS     r0,r0,#0x20
        0x00001a00:    9000        ..      STR      r0,[sp,#0]
        0x00001a02:    4a21        !J      LDR      r2,[pc,#132] ; [0x1a88] = 0xffff
        0x00001a04:    9905        ..      LDR      r1,[sp,#0x14]
        0x00001a06:    9801        ..      LDR      r0,[sp,#4]
        0x00001a08:    f7fffab5    ....    BL       draw_Bmp16x16 ; 0xf76
        0x00001a0c:    481d        .H      LDR      r0,[pc,#116] ; [0x1a84] = 0x2000007a
        0x00001a0e:    e000        ..      B        0x1a12 ; main + 2126
        0x00001a10:    e2fa        ..      B        0x2008 ; main + 3652
        0x00001a12:    9000        ..      STR      r0,[sp,#0]
        0x00001a14:    2300        .#      MOVS     r3,#0
        0x00001a16:    4a1c        .J      LDR      r2,[pc,#112] ; [0x1a88] = 0xffff
        0x00001a18:    4621        !F      MOV      r1,r4
        0x00001a1a:    4628        (F      MOV      r0,r5
        0x00001a1c:    f7fffaab    ....    BL       draw_Bmp16x16 ; 0xf76
        0x00001a20:    4818        .H      LDR      r0,[pc,#96] ; [0x1a84] = 0x2000007a
        0x00001a22:    2300        .#      MOVS     r3,#0
        0x00001a24:    3060        `0      ADDS     r0,r0,#0x60
        0x00001a26:    9000        ..      STR      r0,[sp,#0]
        0x00001a28:    4a17        .J      LDR      r2,[pc,#92] ; [0x1a88] = 0xffff
        0x00001a2a:    9908        ..      LDR      r1,[sp,#0x20]
        0x00001a2c:    980d        ..      LDR      r0,[sp,#0x34]
        0x00001a2e:    f7fffaa2    ....    BL       draw_Bmp16x16 ; 0xf76
        0x00001a32:    4814        .H      LDR      r0,[pc,#80] ; [0x1a84] = 0x2000007a
        0x00001a34:    2300        .#      MOVS     r3,#0
        0x00001a36:    3060        `0      ADDS     r0,r0,#0x60
        0x00001a38:    9000        ..      STR      r0,[sp,#0]
        0x00001a3a:    4a13        .J      LDR      r2,[pc,#76] ; [0x1a88] = 0xffff
        0x00001a3c:    9911        ..      LDR      r1,[sp,#0x44]
        0x00001a3e:    9812        ..      LDR      r0,[sp,#0x48]
        0x00001a40:    f7fffa99    ....    BL       draw_Bmp16x16 ; 0xf76
        0x00001a44:    480f        .H      LDR      r0,[pc,#60] ; [0x1a84] = 0x2000007a
        0x00001a46:    2300        .#      MOVS     r3,#0
        0x00001a48:    3840        @8      SUBS     r0,r0,#0x40
        0x00001a4a:    9000        ..      STR      r0,[sp,#0]
        0x00001a4c:    4a0e        .J      LDR      r2,[pc,#56] ; [0x1a88] = 0xffff
        0x00001a4e:    9906        ..      LDR      r1,[sp,#0x18]
        0x00001a50:    980e        ..      LDR      r0,[sp,#0x38]
        0x00001a52:    f7fffa90    ....    BL       draw_Bmp16x16 ; 0xf76
        0x00001a56:    480b        .H      LDR      r0,[pc,#44] ; [0x1a84] = 0x2000007a
        0x00001a58:    2300        .#      MOVS     r3,#0
        0x00001a5a:    3840        @8      SUBS     r0,r0,#0x40
        0x00001a5c:    9000        ..      STR      r0,[sp,#0]
        0x00001a5e:    4a0a        .J      LDR      r2,[pc,#40] ; [0x1a88] = 0xffff
        0x00001a60:    9907        ..      LDR      r1,[sp,#0x1c]
        0x00001a62:    980c        ..      LDR      r0,[sp,#0x30]
        0x00001a64:    f7fffa87    ....    BL       draw_Bmp16x16 ; 0xf76
        0x00001a68:    4806        .H      LDR      r0,[pc,#24] ; [0x1a84] = 0x2000007a
        0x00001a6a:    2300        .#      MOVS     r3,#0
        0x00001a6c:    3840        @8      SUBS     r0,r0,#0x40
        0x00001a6e:    9000        ..      STR      r0,[sp,#0]
        0x00001a70:    4a05        .J      LDR      r2,[pc,#20] ; [0x1a88] = 0xffff
        0x00001a72:    9914        ..      LDR      r1,[sp,#0x50]
        0x00001a74:    9816        ..      LDR      r0,[sp,#0x58]
        0x00001a76:    f7fffa7e    ..~.    BL       draw_Bmp16x16 ; 0xf76
        0x00001a7a:    4802        .H      LDR      r0,[pc,#8] ; [0x1a84] = 0x2000007a
        0x00001a7c:    4a02        .J      LDR      r2,[pc,#8] ; [0x1a88] = 0xffff
        0x00001a7e:    3040        @0      ADDS     r0,r0,#0x40
        0x00001a80:    2300        .#      MOVS     r3,#0
        0x00001a82:    e005        ..      B        0x1a90 ; main + 2252
    $d
        0x00001a84:    2000007a    z..     DCD    536871034
        0x00001a88:    0000ffff    ....    DCD    65535
        0x00001a8c:    00000dac    ....    DCD    3500
    $t
        0x00001a90:    9000        ..      STR      r0,[sp,#0]
        0x00001a92:    990b        ..      LDR      r1,[sp,#0x2c]
        0x00001a94:    9810        ..      LDR      r0,[sp,#0x40]
        0x00001a96:    f7fffa6e    ..n.    BL       draw_Bmp16x16 ; 0xf76
        0x00001a9a:    48fe        .H      LDR      r0,[pc,#1016] ; [0x1e94] = 0xc350
        0x00001a9c:    f7fefe2e    ....    BL       CLK_SysTickDelay ; 0x6fc
        0x00001aa0:    4621        !F      MOV      r1,r4
        0x00001aa2:    4628        (F      MOV      r0,r5
        0x00001aa4:    9b06        ..      LDR      r3,[sp,#0x18]
        0x00001aa6:    9a0e        ..      LDR      r2,[sp,#0x38]
        0x00001aa8:    f7fffa52    ..R.    BL       crash ; 0xf50
        0x00001aac:    2800        .(      CMP      r0,#0
        0x00001aae:    d000        ..      BEQ      0x1ab2 ; main + 2286
        0x00001ab0:    e580        ..      B        0x15b4 ; main + 1008
        0x00001ab2:    4621        !F      MOV      r1,r4
        0x00001ab4:    4628        (F      MOV      r0,r5
        0x00001ab6:    9b0b        ..      LDR      r3,[sp,#0x2c]
        0x00001ab8:    9a10        ..      LDR      r2,[sp,#0x40]
        0x00001aba:    f7fffa49    ..I.    BL       crash ; 0xf50
        0x00001abe:    2800        .(      CMP      r0,#0
        0x00001ac0:    d1f6        ..      BNE      0x1ab0 ; main + 2284
        0x00001ac2:    4621        !F      MOV      r1,r4
        0x00001ac4:    4628        (F      MOV      r0,r5
        0x00001ac6:    9b07        ..      LDR      r3,[sp,#0x1c]
        0x00001ac8:    9a0c        ..      LDR      r2,[sp,#0x30]
        0x00001aca:    f7fffa41    ..A.    BL       crash ; 0xf50
        0x00001ace:    2800        .(      CMP      r0,#0
        0x00001ad0:    d1ee        ..      BNE      0x1ab0 ; main + 2284
        0x00001ad2:    4621        !F      MOV      r1,r4
        0x00001ad4:    4628        (F      MOV      r0,r5
        0x00001ad6:    9b08        ..      LDR      r3,[sp,#0x20]
        0x00001ad8:    9a0d        ..      LDR      r2,[sp,#0x34]
        0x00001ada:    f7fffa39    ..9.    BL       crash ; 0xf50
        0x00001ade:    2800        .(      CMP      r0,#0
        0x00001ae0:    d1e6        ..      BNE      0x1ab0 ; main + 2284
        0x00001ae2:    4621        !F      MOV      r1,r4
        0x00001ae4:    4628        (F      MOV      r0,r5
        0x00001ae6:    9b11        ..      LDR      r3,[sp,#0x44]
        0x00001ae8:    9a12        ..      LDR      r2,[sp,#0x48]
        0x00001aea:    f7fffa31    ..1.    BL       crash ; 0xf50
        0x00001aee:    2800        .(      CMP      r0,#0
        0x00001af0:    d1de        ..      BNE      0x1ab0 ; main + 2284
        0x00001af2:    4621        !F      MOV      r1,r4
        0x00001af4:    4628        (F      MOV      r0,r5
        0x00001af6:    e000        ..      B        0x1afa ; main + 2358
        0x00001af8:    e037        7.      B        0x1b6a ; main + 2470
        0x00001afa:    9b14        ..      LDR      r3,[sp,#0x50]
        0x00001afc:    9a16        ..      LDR      r2,[sp,#0x58]
        0x00001afe:    f7fffa27    ..'.    BL       crash ; 0xf50
        0x00001b02:    2800        .(      CMP      r0,#0
        0x00001b04:    d1d4        ..      BNE      0x1ab0 ; main + 2284
        0x00001b06:    2001        .       MOVS     r0,#1
        0x00001b08:    9906        ..      LDR      r1,[sp,#0x18]
        0x00001b0a:    f000faa3    ....    BL       move_down ; 0x2054
        0x00001b0e:    b2c0        ..      UXTB     r0,r0
        0x00001b10:    9006        ..      STR      r0,[sp,#0x18]
        0x00001b12:    2001        .       MOVS     r0,#1
        0x00001b14:    9914        ..      LDR      r1,[sp,#0x50]
        0x00001b16:    f000fa9d    ....    BL       move_down ; 0x2054
        0x00001b1a:    b2c0        ..      UXTB     r0,r0
        0x00001b1c:    9014        ..      STR      r0,[sp,#0x50]
        0x00001b1e:    2001        .       MOVS     r0,#1
        0x00001b20:    990b        ..      LDR      r1,[sp,#0x2c]
        0x00001b22:    f000fa9d    ....    BL       move_up ; 0x2060
        0x00001b26:    b2c0        ..      UXTB     r0,r0
        0x00001b28:    900b        ..      STR      r0,[sp,#0x2c]
        0x00001b2a:    2002        .       MOVS     r0,#2
        0x00001b2c:    9907        ..      LDR      r1,[sp,#0x1c]
        0x00001b2e:    f000fa91    ....    BL       move_down ; 0x2054
        0x00001b32:    b2c0        ..      UXTB     r0,r0
        0x00001b34:    9007        ..      STR      r0,[sp,#0x1c]
        0x00001b36:    2001        .       MOVS     r0,#1
        0x00001b38:    9908        ..      LDR      r1,[sp,#0x20]
        0x00001b3a:    f000fa91    ....    BL       move_up ; 0x2060
        0x00001b3e:    b2c0        ..      UXTB     r0,r0
        0x00001b40:    9008        ..      STR      r0,[sp,#0x20]
        0x00001b42:    4628        (F      MOV      r0,r5
        0x00001b44:    990a        ..      LDR      r1,[sp,#0x28]
        0x00001b46:    300a        .0      ADDS     r0,r0,#0xa
        0x00001b48:    4288        .B      CMP      r0,r1
        0x00001b4a:    d200        ..      BCS      0x1b4e ; main + 2442
        0x00001b4c:    e609        ..      B        0x1762 ; main + 1438
        0x00001b4e:    4608        .F      MOV      r0,r1
        0x00001b50:    3010        .0      ADDS     r0,r0,#0x10
        0x00001b52:    4285        .B      CMP      r5,r0
        0x00001b54:    d8fa        ..      BHI      0x1b4c ; main + 2440
        0x00001b56:    9809        ..      LDR      r0,[sp,#0x24]
        0x00001b58:    300c        .0      ADDS     r0,r0,#0xc
        0x00001b5a:    4284        .B      CMP      r4,r0
        0x00001b5c:    d8f6        ..      BHI      0x1b4c ; main + 2440
        0x00001b5e:    4620         F      MOV      r0,r4
        0x00001b60:    9909        ..      LDR      r1,[sp,#0x24]
        0x00001b62:    300e        .0      ADDS     r0,r0,#0xe
        0x00001b64:    4288        .B      CMP      r0,r1
        0x00001b66:    d3f1        ..      BCC      0x1b4c ; main + 2440
        0x00001b68:    e24b        K.      B        0x2002 ; main + 3646
        0x00001b6a:    200f        .       MOVS     r0,#0xf
        0x00001b6c:    9004        ..      STR      r0,[sp,#0x10]
        0x00001b6e:    2500        .%      MOVS     r5,#0
        0x00001b70:    202d        -       MOVS     r0,#0x2d
        0x00001b72:    9005        ..      STR      r0,[sp,#0x14]
        0x00001b74:    9503        ..      STR      r5,[sp,#0xc]
        0x00001b76:    2020                MOVS     r0,#0x20
        0x00001b78:    900d        ..      STR      r0,[sp,#0x34]
        0x00001b7a:    202f        /       MOVS     r0,#0x2f
        0x00001b7c:    9008        ..      STR      r0,[sp,#0x20]
        0x00001b7e:    2030        0       MOVS     r0,#0x30
        0x00001b80:    2710        .'      MOVS     r7,#0x10
        0x00001b82:    900e        ..      STR      r0,[sp,#0x38]
        0x00001b84:    2040        @       MOVS     r0,#0x40
        0x00001b86:    900f        ..      STR      r0,[sp,#0x3c]
        0x00001b88:    9702        ..      STR      r7,[sp,#8]
        0x00001b8a:    2050        P       MOVS     r0,#0x50
        0x00001b8c:    900c        ..      STR      r0,[sp,#0x30]
        0x00001b8e:    202f        /       MOVS     r0,#0x2f
        0x00001b90:    9007        ..      STR      r0,[sp,#0x1c]
        0x00001b92:    2060        `       MOVS     r0,#0x60
        0x00001b94:    9012        ..      STR      r0,[sp,#0x48]
        0x00001b96:    202f        /       MOVS     r0,#0x2f
        0x00001b98:    9011        ..      STR      r0,[sp,#0x44]
        0x00001b9a:    2070        p       MOVS     r0,#0x70
        0x00001b9c:    900a        ..      STR      r0,[sp,#0x28]
        0x00001b9e:    202f        /       MOVS     r0,#0x2f
        0x00001ba0:    9701        ..      STR      r7,[sp,#4]
        0x00001ba2:    9009        ..      STR      r0,[sp,#0x24]
        0x00001ba4:    9506        ..      STR      r5,[sp,#0x18]
        0x00001ba6:    2020                MOVS     r0,#0x20
        0x00001ba8:    9010        ..      STR      r0,[sp,#0x40]
        0x00001baa:    202f        /       MOVS     r0,#0x2f
        0x00001bac:    900b        ..      STR      r0,[sp,#0x2c]
        0x00001bae:    48ba        .H      LDR      r0,[pc,#744] ; [0x1e98] = 0x200000da
        0x00001bb0:    9000        ..      STR      r0,[sp,#0]
        0x00001bb2:    240a        .$      MOVS     r4,#0xa
        0x00001bb4:    261c        .&      MOVS     r6,#0x1c
        0x00001bb6:    2300        .#      MOVS     r3,#0
        0x00001bb8:    4ab8        .J      LDR      r2,[pc,#736] ; [0x1e9c] = 0xffff
        0x00001bba:    9908        ..      LDR      r1,[sp,#0x20]
        0x00001bbc:    980d        ..      LDR      r0,[sp,#0x34]
        0x00001bbe:    f7fff9da    ....    BL       draw_Bmp16x16 ; 0xf76
        0x00001bc2:    48b5        .H      LDR      r0,[pc,#724] ; [0x1e98] = 0x200000da
        0x00001bc4:    9000        ..      STR      r0,[sp,#0]
        0x00001bc6:    2300        .#      MOVS     r3,#0
        0x00001bc8:    4ab4        .J      LDR      r2,[pc,#720] ; [0x1e9c] = 0xffff
        0x00001bca:    9911        ..      LDR      r1,[sp,#0x44]
        0x00001bcc:    9812        ..      LDR      r0,[sp,#0x48]
        0x00001bce:    f7fff9d2    ....    BL       draw_Bmp16x16 ; 0xf76
        0x00001bd2:    48b1        .H      LDR      r0,[pc,#708] ; [0x1e98] = 0x200000da
        0x00001bd4:    2300        .#      MOVS     r3,#0
        0x00001bd6:    38a0        .8      SUBS     r0,r0,#0xa0
        0x00001bd8:    9000        ..      STR      r0,[sp,#0]
        0x00001bda:    4ab0        .J      LDR      r2,[pc,#704] ; [0x1e9c] = 0xffff
        0x00001bdc:    9906        ..      LDR      r1,[sp,#0x18]
        0x00001bde:    980e        ..      LDR      r0,[sp,#0x38]
        0x00001be0:    f7fff9c9    ....    BL       draw_Bmp16x16 ; 0xf76
        0x00001be4:    48ac        .H      LDR      r0,[pc,#688] ; [0x1e98] = 0x200000da
        0x00001be6:    2300        .#      MOVS     r3,#0
        0x00001be8:    3820         8      SUBS     r0,r0,#0x20
        0x00001bea:    9000        ..      STR      r0,[sp,#0]
        0x00001bec:    4aab        .J      LDR      r2,[pc,#684] ; [0x1e9c] = 0xffff
        0x00001bee:    9907        ..      LDR      r1,[sp,#0x1c]
        0x00001bf0:    980c        ..      LDR      r0,[sp,#0x30]
        0x00001bf2:    f7fff9c0    ....    BL       draw_Bmp16x16 ; 0xf76
        0x00001bf6:    48a8        .H      LDR      r0,[pc,#672] ; [0x1e98] = 0x200000da
        0x00001bf8:    2300        .#      MOVS     r3,#0
        0x00001bfa:    3880        .8      SUBS     r0,r0,#0x80
        0x00001bfc:    9000        ..      STR      r0,[sp,#0]
        0x00001bfe:    4aa7        .J      LDR      r2,[pc,#668] ; [0x1e9c] = 0xffff
        0x00001c00:    4638        8F      MOV      r0,r7
        0x00001c02:    9903        ..      LDR      r1,[sp,#0xc]
        0x00001c04:    f7fff9b7    ....    BL       draw_Bmp16x16 ; 0xf76
        0x00001c08:    48a3        .H      LDR      r0,[pc,#652] ; [0x1e98] = 0x200000da
        0x00001c0a:    2300        .#      MOVS     r3,#0
        0x00001c0c:    3880        .8      SUBS     r0,r0,#0x80
        0x00001c0e:    9000        ..      STR      r0,[sp,#0]
        0x00001c10:    4aa2        .J      LDR      r2,[pc,#648] ; [0x1e9c] = 0xffff
        0x00001c12:    9904        ..      LDR      r1,[sp,#0x10]
        0x00001c14:    9802        ..      LDR      r0,[sp,#8]
        0x00001c16:    f7fff9ae    ....    BL       draw_Bmp16x16 ; 0xf76
        0x00001c1a:    489f        .H      LDR      r0,[pc,#636] ; [0x1e98] = 0x200000da
        0x00001c1c:    2300        .#      MOVS     r3,#0
        0x00001c1e:    3880        .8      SUBS     r0,r0,#0x80
        0x00001c20:    9000        ..      STR      r0,[sp,#0]
        0x00001c22:    4a9e        .J      LDR      r2,[pc,#632] ; [0x1e9c] = 0xffff
        0x00001c24:    9905        ..      LDR      r1,[sp,#0x14]
        0x00001c26:    9801        ..      LDR      r0,[sp,#4]
        0x00001c28:    f7fff9a5    ....    BL       draw_Bmp16x16 ; 0xf76
        0x00001c2c:    489a        .H      LDR      r0,[pc,#616] ; [0x1e98] = 0x200000da
        0x00001c2e:    2300        .#      MOVS     r3,#0
        0x00001c30:    3880        .8      SUBS     r0,r0,#0x80
        0x00001c32:    9000        ..      STR      r0,[sp,#0]
        0x00001c34:    4a99        .J      LDR      r2,[pc,#612] ; [0x1e9c] = 0xffff
        0x00001c36:    4631        1F      MOV      r1,r6
        0x00001c38:    980f        ..      LDR      r0,[sp,#0x3c]
        0x00001c3a:    f7fff99c    ....    BL       draw_Bmp16x16 ; 0xf76
        0x00001c3e:    4896        .H      LDR      r0,[pc,#600] ; [0x1e98] = 0x200000da
        0x00001c40:    2300        .#      MOVS     r3,#0
        0x00001c42:    3840        @8      SUBS     r0,r0,#0x40
        0x00001c44:    9000        ..      STR      r0,[sp,#0]
        0x00001c46:    4a95        .J      LDR      r2,[pc,#596] ; [0x1e9c] = 0xffff
        0x00001c48:    9909        ..      LDR      r1,[sp,#0x24]
        0x00001c4a:    980a        ..      LDR      r0,[sp,#0x28]
        0x00001c4c:    f7fff993    ....    BL       draw_Bmp16x16 ; 0xf76
        0x00001c50:    e1c4        ..      B        0x1fdc ; main + 3608
        0x00001c52:    4891        .H      LDR      r0,[pc,#580] ; [0x1e98] = 0x200000da
        0x00001c54:    38a6        .8      SUBS     r0,r0,#0xa6
        0x00001c56:    8840        @.      LDRH     r0,[r0,#2]
        0x00001c58:    4991        .I      LDR      r1,[pc,#580] ; [0x1ea0] = 0xdac
        0x00001c5a:    4288        .B      CMP      r0,r1
        0x00001c5c:    d941        A.      BLS      0x1ce2 ; main + 2846
        0x00001c5e:    2d6f        o-      CMP      r5,#0x6f
        0x00001c60:    d27e        ~.      BCS      0x1d60 ; main + 2972
        0x00001c62:    4628        (F      MOV      r0,r5
        0x00001c64:    300f        .0      ADDS     r0,r0,#0xf
        0x00001c66:    42b8        .B      CMP      r0,r7
        0x00001c68:    d90c        ..      BLS      0x1c84 ; main + 2752
        0x00001c6a:    463a        :F      MOV      r2,r7
        0x00001c6c:    320e        .2      ADDS     r2,r2,#0xe
        0x00001c6e:    4295        .B      CMP      r5,r2
        0x00001c70:    d208        ..      BCS      0x1c84 ; main + 2752
        0x00001c72:    4622        "F      MOV      r2,r4
        0x00001c74:    9b03        ..      LDR      r3,[sp,#0xc]
        0x00001c76:    320c        .2      ADDS     r2,r2,#0xc
        0x00001c78:    429a        .B      CMP      r2,r3
        0x00001c7a:    d903        ..      BLS      0x1c84 ; main + 2752
        0x00001c7c:    461a        .F      MOV      r2,r3
        0x00001c7e:    320b        .2      ADDS     r2,r2,#0xb
        0x00001c80:    4294        .B      CMP      r4,r2
        0x00001c82:    d379        y.      BCC      0x1d78 ; main + 2996
        0x00001c84:    9a0f        ..      LDR      r2,[sp,#0x3c]
        0x00001c86:    4290        .B      CMP      r0,r2
        0x00001c88:    d90a        ..      BLS      0x1ca0 ; main + 2780
        0x00001c8a:    320e        .2      ADDS     r2,r2,#0xe
        0x00001c8c:    4295        .B      CMP      r5,r2
        0x00001c8e:    d207        ..      BCS      0x1ca0 ; main + 2780
        0x00001c90:    4622        "F      MOV      r2,r4
        0x00001c92:    320c        .2      ADDS     r2,r2,#0xc
        0x00001c94:    42b2        .B      CMP      r2,r6
        0x00001c96:    d903        ..      BLS      0x1ca0 ; main + 2780
        0x00001c98:    4632        2F      MOV      r2,r6
        0x00001c9a:    320b        .2      ADDS     r2,r2,#0xb
        0x00001c9c:    4294        .B      CMP      r4,r2
        0x00001c9e:    d36b        k.      BCC      0x1d78 ; main + 2996
        0x00001ca0:    9a02        ..      LDR      r2,[sp,#8]
        0x00001ca2:    4290        .B      CMP      r0,r2
        0x00001ca4:    d90b        ..      BLS      0x1cbe ; main + 2810
        0x00001ca6:    320e        .2      ADDS     r2,r2,#0xe
        0x00001ca8:    4295        .B      CMP      r5,r2
        0x00001caa:    d208        ..      BCS      0x1cbe ; main + 2810
        0x00001cac:    4622        "F      MOV      r2,r4
        0x00001cae:    9b04        ..      LDR      r3,[sp,#0x10]
        0x00001cb0:    320c        .2      ADDS     r2,r2,#0xc
        0x00001cb2:    429a        .B      CMP      r2,r3
        0x00001cb4:    d903        ..      BLS      0x1cbe ; main + 2810
        0x00001cb6:    461a        .F      MOV      r2,r3
        0x00001cb8:    320b        .2      ADDS     r2,r2,#0xb
        0x00001cba:    4294        .B      CMP      r4,r2
        0x00001cbc:    d35c        \.      BCC      0x1d78 ; main + 2996
        0x00001cbe:    9a01        ..      LDR      r2,[sp,#4]
        0x00001cc0:    4290        .B      CMP      r0,r2
        0x00001cc2:    d90c        ..      BLS      0x1cde ; main + 2842
        0x00001cc4:    4610        .F      MOV      r0,r2
        0x00001cc6:    300e        .0      ADDS     r0,r0,#0xe
        0x00001cc8:    4285        .B      CMP      r5,r0
        0x00001cca:    d208        ..      BCS      0x1cde ; main + 2842
        0x00001ccc:    4620         F      MOV      r0,r4
        0x00001cce:    9a05        ..      LDR      r2,[sp,#0x14]
        0x00001cd0:    300c        .0      ADDS     r0,r0,#0xc
        0x00001cd2:    4290        .B      CMP      r0,r2
        0x00001cd4:    d903        ..      BLS      0x1cde ; main + 2842
        0x00001cd6:    4610        .F      MOV      r0,r2
        0x00001cd8:    300b        .0      ADDS     r0,r0,#0xb
        0x00001cda:    4284        .B      CMP      r4,r0
        0x00001cdc:    d34c        L.      BCC      0x1d78 ; main + 2996
        0x00001cde:    1ced        ..      ADDS     r5,r5,#3
        0x00001ce0:    e049        I.      B        0x1d76 ; main + 2994
        0x00001ce2:    486d        mH      LDR      r0,[pc,#436] ; [0x1e98] = 0x200000da
        0x00001ce4:    38a6        .8      SUBS     r0,r0,#0xa6
        0x00001ce6:    8842        B.      LDRH     r2,[r0,#2]
        0x00001ce8:    207d        }       MOVS     r0,#0x7d
        0x00001cea:    00c0        ..      LSLS     r0,r0,#3
        0x00001cec:    4282        .B      CMP      r2,r0
        0x00001cee:    d243        C.      BCS      0x1d78 ; main + 2996
        0x00001cf0:    2d00        .-      CMP      r5,#0
        0x00001cf2:    d041        A.      BEQ      0x1d78 ; main + 2996
        0x00001cf4:    4628        (F      MOV      r0,r5
        0x00001cf6:    300d        .0      ADDS     r0,r0,#0xd
        0x00001cf8:    42b8        .B      CMP      r0,r7
        0x00001cfa:    d90c        ..      BLS      0x1d16 ; main + 2898
        0x00001cfc:    463a        :F      MOV      r2,r7
        0x00001cfe:    320e        .2      ADDS     r2,r2,#0xe
        0x00001d00:    4295        .B      CMP      r5,r2
        0x00001d02:    d808        ..      BHI      0x1d16 ; main + 2898
        0x00001d04:    4622        "F      MOV      r2,r4
        0x00001d06:    9b03        ..      LDR      r3,[sp,#0xc]
        0x00001d08:    320c        .2      ADDS     r2,r2,#0xc
        0x00001d0a:    429a        .B      CMP      r2,r3
        0x00001d0c:    d903        ..      BLS      0x1d16 ; main + 2898
        0x00001d0e:    461a        .F      MOV      r2,r3
        0x00001d10:    320b        .2      ADDS     r2,r2,#0xb
        0x00001d12:    4294        .B      CMP      r4,r2
        0x00001d14:    d330        0.      BCC      0x1d78 ; main + 2996
        0x00001d16:    9a0f        ..      LDR      r2,[sp,#0x3c]
        0x00001d18:    4290        .B      CMP      r0,r2
        0x00001d1a:    d90a        ..      BLS      0x1d32 ; main + 2926
        0x00001d1c:    320e        .2      ADDS     r2,r2,#0xe
        0x00001d1e:    4295        .B      CMP      r5,r2
        0x00001d20:    d807        ..      BHI      0x1d32 ; main + 2926
        0x00001d22:    4622        "F      MOV      r2,r4
        0x00001d24:    320c        .2      ADDS     r2,r2,#0xc
        0x00001d26:    42b2        .B      CMP      r2,r6
        0x00001d28:    d903        ..      BLS      0x1d32 ; main + 2926
        0x00001d2a:    4632        2F      MOV      r2,r6
        0x00001d2c:    320b        .2      ADDS     r2,r2,#0xb
        0x00001d2e:    4294        .B      CMP      r4,r2
        0x00001d30:    d322        ".      BCC      0x1d78 ; main + 2996
        0x00001d32:    9a02        ..      LDR      r2,[sp,#8]
        0x00001d34:    4290        .B      CMP      r0,r2
        0x00001d36:    d90b        ..      BLS      0x1d50 ; main + 2956
        0x00001d38:    320e        .2      ADDS     r2,r2,#0xe
        0x00001d3a:    4295        .B      CMP      r5,r2
        0x00001d3c:    d808        ..      BHI      0x1d50 ; main + 2956
        0x00001d3e:    4622        "F      MOV      r2,r4
        0x00001d40:    9b04        ..      LDR      r3,[sp,#0x10]
        0x00001d42:    320c        .2      ADDS     r2,r2,#0xc
        0x00001d44:    429a        .B      CMP      r2,r3
        0x00001d46:    d903        ..      BLS      0x1d50 ; main + 2956
        0x00001d48:    461a        .F      MOV      r2,r3
        0x00001d4a:    320b        .2      ADDS     r2,r2,#0xb
        0x00001d4c:    4294        .B      CMP      r4,r2
        0x00001d4e:    d313        ..      BCC      0x1d78 ; main + 2996
        0x00001d50:    9a01        ..      LDR      r2,[sp,#4]
        0x00001d52:    4290        .B      CMP      r0,r2
        0x00001d54:    d90e        ..      BLS      0x1d74 ; main + 2992
        0x00001d56:    4610        .F      MOV      r0,r2
        0x00001d58:    300e        .0      ADDS     r0,r0,#0xe
        0x00001d5a:    4285        .B      CMP      r5,r0
        0x00001d5c:    d80a        ..      BHI      0x1d74 ; main + 2992
        0x00001d5e:    e000        ..      B        0x1d62 ; main + 2974
        0x00001d60:    e00a        ..      B        0x1d78 ; main + 2996
        0x00001d62:    4620         F      MOV      r0,r4
        0x00001d64:    9a05        ..      LDR      r2,[sp,#0x14]
        0x00001d66:    300c        .0      ADDS     r0,r0,#0xc
        0x00001d68:    4290        .B      CMP      r0,r2
        0x00001d6a:    d903        ..      BLS      0x1d74 ; main + 2992
        0x00001d6c:    4610        .F      MOV      r0,r2
        0x00001d6e:    300b        .0      ADDS     r0,r0,#0xb
        0x00001d70:    4284        .B      CMP      r4,r0
        0x00001d72:    d301        ..      BCC      0x1d78 ; main + 2996
        0x00001d74:    1eed        ..      SUBS     r5,r5,#3
        0x00001d76:    b2ed        ..      UXTB     r5,r5
        0x00001d78:    4847        GH      LDR      r0,[pc,#284] ; [0x1e98] = 0x200000da
        0x00001d7a:    38a6        .8      SUBS     r0,r0,#0xa6
        0x00001d7c:    8882        ..      LDRH     r2,[r0,#4]
        0x00001d7e:    428a        .B      CMP      r2,r1
        0x00001d80:    d943        C.      BLS      0x1e0a ; main + 3142
        0x00001d82:    2c2f        /,      CMP      r4,#0x2f
        0x00001d84:    d27e        ~.      BCS      0x1e84 ; main + 3264
        0x00001d86:    4628        (F      MOV      r0,r5
        0x00001d88:    300d        .0      ADDS     r0,r0,#0xd
        0x00001d8a:    42b8        .B      CMP      r0,r7
        0x00001d8c:    d90c        ..      BLS      0x1da8 ; main + 3044
        0x00001d8e:    4639        9F      MOV      r1,r7
        0x00001d90:    310e        .1      ADDS     r1,r1,#0xe
        0x00001d92:    428d        .B      CMP      r5,r1
        0x00001d94:    d208        ..      BCS      0x1da8 ; main + 3044
        0x00001d96:    4621        !F      MOV      r1,r4
        0x00001d98:    9a03        ..      LDR      r2,[sp,#0xc]
        0x00001d9a:    310c        .1      ADDS     r1,r1,#0xc
        0x00001d9c:    4291        .B      CMP      r1,r2
        0x00001d9e:    d303        ..      BCC      0x1da8 ; main + 3044
        0x00001da0:    4611        .F      MOV      r1,r2
        0x00001da2:    310b        .1      ADDS     r1,r1,#0xb
        0x00001da4:    428c        .B      CMP      r4,r1
        0x00001da6:    d36d        m.      BCC      0x1e84 ; main + 3264
        0x00001da8:    990f        ..      LDR      r1,[sp,#0x3c]
        0x00001daa:    4288        .B      CMP      r0,r1
        0x00001dac:    d90c        ..      BLS      0x1dc8 ; main + 3076
        0x00001dae:    310e        .1      ADDS     r1,r1,#0xe
        0x00001db0:    428d        .B      CMP      r5,r1
        0x00001db2:    d209        ..      BCS      0x1dc8 ; main + 3076
        0x00001db4:    4621        !F      MOV      r1,r4
        0x00001db6:    310c        .1      ADDS     r1,r1,#0xc
        0x00001db8:    42b1        .B      CMP      r1,r6
        0x00001dba:    d305        ..      BCC      0x1dc8 ; main + 3076
        0x00001dbc:    4631        1F      MOV      r1,r6
        0x00001dbe:    e000        ..      B        0x1dc2 ; main + 3070
        0x00001dc0:    e123        #.      B        0x200a ; main + 3654
        0x00001dc2:    310b        .1      ADDS     r1,r1,#0xb
        0x00001dc4:    428c        .B      CMP      r4,r1
        0x00001dc6:    d372        r.      BCC      0x1eae ; main + 3306
        0x00001dc8:    9902        ..      LDR      r1,[sp,#8]
        0x00001dca:    4288        .B      CMP      r0,r1
        0x00001dcc:    d90b        ..      BLS      0x1de6 ; main + 3106
        0x00001dce:    310e        .1      ADDS     r1,r1,#0xe
        0x00001dd0:    428d        .B      CMP      r5,r1
        0x00001dd2:    d208        ..      BCS      0x1de6 ; main + 3106
        0x00001dd4:    4621        !F      MOV      r1,r4
        0x00001dd6:    9a04        ..      LDR      r2,[sp,#0x10]
        0x00001dd8:    310c        .1      ADDS     r1,r1,#0xc
        0x00001dda:    4291        .B      CMP      r1,r2
        0x00001ddc:    d303        ..      BCC      0x1de6 ; main + 3106
        0x00001dde:    4611        .F      MOV      r1,r2
        0x00001de0:    310b        .1      ADDS     r1,r1,#0xb
        0x00001de2:    428c        .B      CMP      r4,r1
        0x00001de4:    d363        c.      BCC      0x1eae ; main + 3306
        0x00001de6:    9901        ..      LDR      r1,[sp,#4]
        0x00001de8:    4288        .B      CMP      r0,r1
        0x00001dea:    d90c        ..      BLS      0x1e06 ; main + 3138
        0x00001dec:    4608        .F      MOV      r0,r1
        0x00001dee:    300e        .0      ADDS     r0,r0,#0xe
        0x00001df0:    4285        .B      CMP      r5,r0
        0x00001df2:    d208        ..      BCS      0x1e06 ; main + 3138
        0x00001df4:    4620         F      MOV      r0,r4
        0x00001df6:    9905        ..      LDR      r1,[sp,#0x14]
        0x00001df8:    300d        .0      ADDS     r0,r0,#0xd
        0x00001dfa:    4288        .B      CMP      r0,r1
        0x00001dfc:    d303        ..      BCC      0x1e06 ; main + 3138
        0x00001dfe:    4608        .F      MOV      r0,r1
        0x00001e00:    300b        .0      ADDS     r0,r0,#0xb
        0x00001e02:    4284        .B      CMP      r4,r0
        0x00001e04:    d353        S.      BCC      0x1eae ; main + 3306
        0x00001e06:    1ca4        ..      ADDS     r4,r4,#2
        0x00001e08:    e050        P.      B        0x1eac ; main + 3304
        0x00001e0a:    8881        ..      LDRH     r1,[r0,#4]
        0x00001e0c:    207d        }       MOVS     r0,#0x7d
        0x00001e0e:    00c0        ..      LSLS     r0,r0,#3
        0x00001e10:    4281        .B      CMP      r1,r0
        0x00001e12:    d24c        L.      BCS      0x1eae ; main + 3306
        0x00001e14:    2c00        .,      CMP      r4,#0
        0x00001e16:    d04a        J.      BEQ      0x1eae ; main + 3306
        0x00001e18:    4628        (F      MOV      r0,r5
        0x00001e1a:    300d        .0      ADDS     r0,r0,#0xd
        0x00001e1c:    42b8        .B      CMP      r0,r7
        0x00001e1e:    d90c        ..      BLS      0x1e3a ; main + 3190
        0x00001e20:    4639        9F      MOV      r1,r7
        0x00001e22:    310e        .1      ADDS     r1,r1,#0xe
        0x00001e24:    428d        .B      CMP      r5,r1
        0x00001e26:    d208        ..      BCS      0x1e3a ; main + 3190
        0x00001e28:    4621        !F      MOV      r1,r4
        0x00001e2a:    9a03        ..      LDR      r2,[sp,#0xc]
        0x00001e2c:    310c        .1      ADDS     r1,r1,#0xc
        0x00001e2e:    4291        .B      CMP      r1,r2
        0x00001e30:    d903        ..      BLS      0x1e3a ; main + 3190
        0x00001e32:    4611        .F      MOV      r1,r2
        0x00001e34:    310c        .1      ADDS     r1,r1,#0xc
        0x00001e36:    428c        .B      CMP      r4,r1
        0x00001e38:    d939        9.      BLS      0x1eae ; main + 3306
        0x00001e3a:    990f        ..      LDR      r1,[sp,#0x3c]
        0x00001e3c:    4288        .B      CMP      r0,r1
        0x00001e3e:    d90a        ..      BLS      0x1e56 ; main + 3218
        0x00001e40:    310e        .1      ADDS     r1,r1,#0xe
        0x00001e42:    428d        .B      CMP      r5,r1
        0x00001e44:    d207        ..      BCS      0x1e56 ; main + 3218
        0x00001e46:    4621        !F      MOV      r1,r4
        0x00001e48:    310c        .1      ADDS     r1,r1,#0xc
        0x00001e4a:    42b1        .B      CMP      r1,r6
        0x00001e4c:    d903        ..      BLS      0x1e56 ; main + 3218
        0x00001e4e:    4631        1F      MOV      r1,r6
        0x00001e50:    310c        .1      ADDS     r1,r1,#0xc
        0x00001e52:    428c        .B      CMP      r4,r1
        0x00001e54:    d92b        +.      BLS      0x1eae ; main + 3306
        0x00001e56:    9902        ..      LDR      r1,[sp,#8]
        0x00001e58:    4288        .B      CMP      r0,r1
        0x00001e5a:    d90b        ..      BLS      0x1e74 ; main + 3248
        0x00001e5c:    310e        .1      ADDS     r1,r1,#0xe
        0x00001e5e:    428d        .B      CMP      r5,r1
        0x00001e60:    d208        ..      BCS      0x1e74 ; main + 3248
        0x00001e62:    4621        !F      MOV      r1,r4
        0x00001e64:    9a04        ..      LDR      r2,[sp,#0x10]
        0x00001e66:    310c        .1      ADDS     r1,r1,#0xc
        0x00001e68:    4291        .B      CMP      r1,r2
        0x00001e6a:    d903        ..      BLS      0x1e74 ; main + 3248
        0x00001e6c:    4611        .F      MOV      r1,r2
        0x00001e6e:    310c        .1      ADDS     r1,r1,#0xc
        0x00001e70:    428c        .B      CMP      r4,r1
        0x00001e72:    d91c        ..      BLS      0x1eae ; main + 3306
        0x00001e74:    9901        ..      LDR      r1,[sp,#4]
        0x00001e76:    4288        .B      CMP      r0,r1
        0x00001e78:    d917        ..      BLS      0x1eaa ; main + 3302
        0x00001e7a:    4608        .F      MOV      r0,r1
        0x00001e7c:    300e        .0      ADDS     r0,r0,#0xe
        0x00001e7e:    4285        .B      CMP      r5,r0
        0x00001e80:    d213        ..      BCS      0x1eaa ; main + 3302
        0x00001e82:    e000        ..      B        0x1e86 ; main + 3266
        0x00001e84:    e013        ..      B        0x1eae ; main + 3306
        0x00001e86:    4620         F      MOV      r0,r4
        0x00001e88:    9905        ..      LDR      r1,[sp,#0x14]
        0x00001e8a:    300c        .0      ADDS     r0,r0,#0xc
        0x00001e8c:    4288        .B      CMP      r0,r1
        0x00001e8e:    d90c        ..      BLS      0x1eaa ; main + 3302
        0x00001e90:    4608        .F      MOV      r0,r1
        0x00001e92:    e007        ..      B        0x1ea4 ; main + 3296
    $d
        0x00001e94:    0000c350    P...    DCD    50000
        0x00001e98:    200000da    ...     DCD    536871130
        0x00001e9c:    0000ffff    ....    DCD    65535
        0x00001ea0:    00000dac    ....    DCD    3500
    $t
        0x00001ea4:    300c        .0      ADDS     r0,r0,#0xc
        0x00001ea6:    4284        .B      CMP      r4,r0
        0x00001ea8:    d901        ..      BLS      0x1eae ; main + 3306
        0x00001eaa:    1ea4        ..      SUBS     r4,r4,#2
        0x00001eac:    b2e4        ..      UXTB     r4,r4
        0x00001eae:    f7fff825    ..%.    BL       clear_LCD ; 0xefc
        0x00001eb2:    4863        cH      LDR      r0,[pc,#396] ; [0x2040] = 0x2000007a
        0x00001eb4:    9000        ..      STR      r0,[sp,#0]
        0x00001eb6:    2300        .#      MOVS     r3,#0
        0x00001eb8:    4a62        bJ      LDR      r2,[pc,#392] ; [0x2044] = 0xffff
        0x00001eba:    4621        !F      MOV      r1,r4
        0x00001ebc:    4628        (F      MOV      r0,r5
        0x00001ebe:    f7fff85a    ..Z.    BL       draw_Bmp16x16 ; 0xf76
        0x00001ec2:    485f        _H      LDR      r0,[pc,#380] ; [0x2040] = 0x2000007a
        0x00001ec4:    2300        .#      MOVS     r3,#0
        0x00001ec6:    3020         0      ADDS     r0,r0,#0x20
        0x00001ec8:    9000        ..      STR      r0,[sp,#0]
        0x00001eca:    4a5e        ^J      LDR      r2,[pc,#376] ; [0x2044] = 0xffff
        0x00001ecc:    9909        ..      LDR      r1,[sp,#0x24]
        0x00001ece:    980a        ..      LDR      r0,[sp,#0x28]
        0x00001ed0:    f7fff851    ..Q.    BL       draw_Bmp16x16 ; 0xf76
        0x00001ed4:    485a        ZH      LDR      r0,[pc,#360] ; [0x2040] = 0x2000007a
        0x00001ed6:    2300        .#      MOVS     r3,#0
        0x00001ed8:    3820         8      SUBS     r0,r0,#0x20
        0x00001eda:    9000        ..      STR      r0,[sp,#0]
        0x00001edc:    4a59        YJ      LDR      r2,[pc,#356] ; [0x2044] = 0xffff
        0x00001ede:    4638        8F      MOV      r0,r7
        0x00001ee0:    9903        ..      LDR      r1,[sp,#0xc]
        0x00001ee2:    f7fff848    ..H.    BL       draw_Bmp16x16 ; 0xf76
        0x00001ee6:    4856        VH      LDR      r0,[pc,#344] ; [0x2040] = 0x2000007a
        0x00001ee8:    2300        .#      MOVS     r3,#0
        0x00001eea:    3820         8      SUBS     r0,r0,#0x20
        0x00001eec:    9000        ..      STR      r0,[sp,#0]
        0x00001eee:    4a55        UJ      LDR      r2,[pc,#340] ; [0x2044] = 0xffff
        0x00001ef0:    9904        ..      LDR      r1,[sp,#0x10]
        0x00001ef2:    9802        ..      LDR      r0,[sp,#8]
        0x00001ef4:    f7fff83f    ..?.    BL       draw_Bmp16x16 ; 0xf76
        0x00001ef8:    4851        QH      LDR      r0,[pc,#324] ; [0x2040] = 0x2000007a
        0x00001efa:    2300        .#      MOVS     r3,#0
        0x00001efc:    3820         8      SUBS     r0,r0,#0x20
        0x00001efe:    9000        ..      STR      r0,[sp,#0]
        0x00001f00:    4a50        PJ      LDR      r2,[pc,#320] ; [0x2044] = 0xffff
        0x00001f02:    9905        ..      LDR      r1,[sp,#0x14]
        0x00001f04:    9801        ..      LDR      r0,[sp,#4]
        0x00001f06:    f7fff836    ..6.    BL       draw_Bmp16x16 ; 0xf76
        0x00001f0a:    484d        MH      LDR      r0,[pc,#308] ; [0x2040] = 0x2000007a
        0x00001f0c:    2300        .#      MOVS     r3,#0
        0x00001f0e:    3820         8      SUBS     r0,r0,#0x20
        0x00001f10:    9000        ..      STR      r0,[sp,#0]
        0x00001f12:    4a4c        LJ      LDR      r2,[pc,#304] ; [0x2044] = 0xffff
        0x00001f14:    4631        1F      MOV      r1,r6
        0x00001f16:    980f        ..      LDR      r0,[sp,#0x3c]
        0x00001f18:    f7fff82d    ..-.    BL       draw_Bmp16x16 ; 0xf76
        0x00001f1c:    4848        HH      LDR      r0,[pc,#288] ; [0x2040] = 0x2000007a
        0x00001f1e:    2300        .#      MOVS     r3,#0
        0x00001f20:    3060        `0      ADDS     r0,r0,#0x60
        0x00001f22:    9000        ..      STR      r0,[sp,#0]
        0x00001f24:    4a47        GJ      LDR      r2,[pc,#284] ; [0x2044] = 0xffff
        0x00001f26:    9908        ..      LDR      r1,[sp,#0x20]
        0x00001f28:    980d        ..      LDR      r0,[sp,#0x34]
        0x00001f2a:    f7fff824    ..$.    BL       draw_Bmp16x16 ; 0xf76
        0x00001f2e:    4844        DH      LDR      r0,[pc,#272] ; [0x2040] = 0x2000007a
        0x00001f30:    2300        .#      MOVS     r3,#0
        0x00001f32:    3060        `0      ADDS     r0,r0,#0x60
        0x00001f34:    9000        ..      STR      r0,[sp,#0]
        0x00001f36:    4a43        CJ      LDR      r2,[pc,#268] ; [0x2044] = 0xffff
        0x00001f38:    9911        ..      LDR      r1,[sp,#0x44]
        0x00001f3a:    9812        ..      LDR      r0,[sp,#0x48]
        0x00001f3c:    f7fff81b    ....    BL       draw_Bmp16x16 ; 0xf76
        0x00001f40:    483f        ?H      LDR      r0,[pc,#252] ; [0x2040] = 0x2000007a
        0x00001f42:    2300        .#      MOVS     r3,#0
        0x00001f44:    3840        @8      SUBS     r0,r0,#0x40
        0x00001f46:    9000        ..      STR      r0,[sp,#0]
        0x00001f48:    4a3e        >J      LDR      r2,[pc,#248] ; [0x2044] = 0xffff
        0x00001f4a:    9906        ..      LDR      r1,[sp,#0x18]
        0x00001f4c:    980e        ..      LDR      r0,[sp,#0x38]
        0x00001f4e:    f7fff812    ....    BL       draw_Bmp16x16 ; 0xf76
        0x00001f52:    483b        ;H      LDR      r0,[pc,#236] ; [0x2040] = 0x2000007a
        0x00001f54:    2300        .#      MOVS     r3,#0
        0x00001f56:    3040        @0      ADDS     r0,r0,#0x40
        0x00001f58:    9000        ..      STR      r0,[sp,#0]
        0x00001f5a:    4a3a        :J      LDR      r2,[pc,#232] ; [0x2044] = 0xffff
        0x00001f5c:    9907        ..      LDR      r1,[sp,#0x1c]
        0x00001f5e:    980c        ..      LDR      r0,[sp,#0x30]
        0x00001f60:    f7fff809    ....    BL       draw_Bmp16x16 ; 0xf76
        0x00001f64:    4838        8H      LDR      r0,[pc,#224] ; [0x2048] = 0xc350
        0x00001f66:    f7fefbc9    ....    BL       CLK_SysTickDelay ; 0x6fc
        0x00001f6a:    4621        !F      MOV      r1,r4
        0x00001f6c:    4628        (F      MOV      r0,r5
        0x00001f6e:    9b06        ..      LDR      r3,[sp,#0x18]
        0x00001f70:    9a0e        ..      LDR      r2,[sp,#0x38]
        0x00001f72:    f7feffed    ....    BL       crash ; 0xf50
        0x00001f76:    2800        .(      CMP      r0,#0
        0x00001f78:    d000        ..      BEQ      0x1f7c ; main + 3512
        0x00001f7a:    e599        ..      B        0x1ab0 ; main + 2284
        0x00001f7c:    4621        !F      MOV      r1,r4
        0x00001f7e:    4628        (F      MOV      r0,r5
        0x00001f80:    9b0b        ..      LDR      r3,[sp,#0x2c]
        0x00001f82:    9a10        ..      LDR      r2,[sp,#0x40]
        0x00001f84:    f7feffe4    ....    BL       crash ; 0xf50
        0x00001f88:    2800        .(      CMP      r0,#0
        0x00001f8a:    d1f6        ..      BNE      0x1f7a ; main + 3510
        0x00001f8c:    4621        !F      MOV      r1,r4
        0x00001f8e:    4628        (F      MOV      r0,r5
        0x00001f90:    9b07        ..      LDR      r3,[sp,#0x1c]
        0x00001f92:    9a0c        ..      LDR      r2,[sp,#0x30]
        0x00001f94:    f7feffdc    ....    BL       crash ; 0xf50
        0x00001f98:    2800        .(      CMP      r0,#0
        0x00001f9a:    d1ee        ..      BNE      0x1f7a ; main + 3510
        0x00001f9c:    4621        !F      MOV      r1,r4
        0x00001f9e:    4628        (F      MOV      r0,r5
        0x00001fa0:    9b08        ..      LDR      r3,[sp,#0x20]
        0x00001fa2:    9a0d        ..      LDR      r2,[sp,#0x34]
        0x00001fa4:    f7feffd4    ....    BL       crash ; 0xf50
        0x00001fa8:    2800        .(      CMP      r0,#0
        0x00001faa:    d1e6        ..      BNE      0x1f7a ; main + 3510
        0x00001fac:    2001        .       MOVS     r0,#1
        0x00001fae:    9906        ..      LDR      r1,[sp,#0x18]
        0x00001fb0:    f000f850    ..P.    BL       move_down ; 0x2054
        0x00001fb4:    b2c0        ..      UXTB     r0,r0
        0x00001fb6:    9006        ..      STR      r0,[sp,#0x18]
        0x00001fb8:    2002        .       MOVS     r0,#2
        0x00001fba:    9907        ..      LDR      r1,[sp,#0x1c]
        0x00001fbc:    f000f850    ..P.    BL       move_up ; 0x2060
        0x00001fc0:    b2c0        ..      UXTB     r0,r0
        0x00001fc2:    9007        ..      STR      r0,[sp,#0x1c]
        0x00001fc4:    2002        .       MOVS     r0,#2
        0x00001fc6:    9908        ..      LDR      r1,[sp,#0x20]
        0x00001fc8:    f000f84a    ..J.    BL       move_up ; 0x2060
        0x00001fcc:    b2c0        ..      UXTB     r0,r0
        0x00001fce:    9008        ..      STR      r0,[sp,#0x20]
        0x00001fd0:    2003        .       MOVS     r0,#3
        0x00001fd2:    9911        ..      LDR      r1,[sp,#0x44]
        0x00001fd4:    f000f844    ..D.    BL       move_up ; 0x2060
        0x00001fd8:    b2c0        ..      UXTB     r0,r0
        0x00001fda:    9011        ..      STR      r0,[sp,#0x44]
        0x00001fdc:    4628        (F      MOV      r0,r5
        0x00001fde:    990a        ..      LDR      r1,[sp,#0x28]
        0x00001fe0:    300a        .0      ADDS     r0,r0,#0xa
        0x00001fe2:    4288        .B      CMP      r0,r1
        0x00001fe4:    d200        ..      BCS      0x1fe8 ; main + 3620
        0x00001fe6:    e634        4.      B        0x1c52 ; main + 2702
        0x00001fe8:    4608        .F      MOV      r0,r1
        0x00001fea:    3010        .0      ADDS     r0,r0,#0x10
        0x00001fec:    4285        .B      CMP      r5,r0
        0x00001fee:    d8fa        ..      BHI      0x1fe6 ; main + 3618
        0x00001ff0:    9809        ..      LDR      r0,[sp,#0x24]
        0x00001ff2:    300c        .0      ADDS     r0,r0,#0xc
        0x00001ff4:    4284        .B      CMP      r4,r0
        0x00001ff6:    d8f6        ..      BHI      0x1fe6 ; main + 3618
        0x00001ff8:    4620         F      MOV      r0,r4
        0x00001ffa:    9909        ..      LDR      r1,[sp,#0x24]
        0x00001ffc:    3010        .0      ADDS     r0,r0,#0x10
        0x00001ffe:    4288        .B      CMP      r0,r1
        0x00002000:    d3f1        ..      BCC      0x1fe6 ; main + 3618
        0x00002002:    9813        ..      LDR      r0,[sp,#0x4c]
        0x00002004:    2800        .(      CMP      r0,#0
        0x00002006:    d101        ..      BNE      0x200c ; main + 3656
        0x00002008:    2001        .       MOVS     r0,#1
        0x0000200a:    9013        ..      STR      r0,[sp,#0x4c]
        0x0000200c:    4c0c        .L      LDR      r4,[pc,#48] ; [0x2040] = 0x2000007a
        0x0000200e:    3c46        F<      SUBS     r4,r4,#0x46
        0x00002010:    8862        b.      LDRH     r2,[r4,#2]
        0x00002012:    a10e        ..      ADR      r1,{pc}+0x3a ; 0x204c
        0x00002014:    480e        .H      LDR      r0,[pc,#56] ; [0x2050] = 0x200008dc
        0x00002016:    f7fefdd9    ....    BL       __0sprintf$5 ; 0xbcc
        0x0000201a:    88a2        ..      LDRH     r2,[r4,#4]
        0x0000201c:    480c        .H      LDR      r0,[pc,#48] ; [0x2050] = 0x200008dc
        0x0000201e:    a10b        ..      ADR      r1,{pc}+0x2e ; 0x204c
        0x00002020:    3010        .0      ADDS     r0,r0,#0x10
        0x00002022:    f7fefdd3    ....    BL       __0sprintf$5 ; 0xbcc
        0x00002026:    7862        bx      LDRB     r2,[r4,#1]
        0x00002028:    4809        .H      LDR      r0,[pc,#36] ; [0x2050] = 0x200008dc
        0x0000202a:    a108        ..      ADR      r1,{pc}+0x22 ; 0x204c
        0x0000202c:    3020         0      ADDS     r0,r0,#0x20
        0x0000202e:    f7fefdcd    ....    BL       __0sprintf$5 ; 0xbcc
        0x00002032:    9813        ..      LDR      r0,[sp,#0x4c]
        0x00002034:    2801        .(      CMP      r0,#1
        0x00002036:    d001        ..      BEQ      0x203c ; main + 3704
        0x00002038:    f7fff8dc    ....    BL       0x11f4 ; main + 48
        0x0000203c:    f7fff8d8    ....    BL       0x11f0 ; main + 44
    $d
        0x00002040:    2000007a    z..     DCD    536871034
        0x00002044:    0000ffff    ....    DCD    65535
        0x00002048:    0000c350    P...    DCD    50000
        0x0000204c:    00006425    %d..    DCD    25637
        0x00002050:    200008dc    ...     DCD    536873180
    $t
    i.move_down
    move_down
        0x00002054:    292f        /)      CMP      r1,#0x2f
        0x00002056:    dd01        ..      BLE      0x205c ; move_down + 8
        0x00002058:    2000        .       MOVS     r0,#0
        0x0000205a:    4770        pG      BX       lr
        0x0000205c:    1808        ..      ADDS     r0,r1,r0
        0x0000205e:    4770        pG      BX       lr
    i.move_up
    move_up
        0x00002060:    2905        .)      CMP      r1,#5
        0x00002062:    dc01        ..      BGT      0x2068 ; move_up + 8
        0x00002064:    202f        /       MOVS     r0,#0x2f
        0x00002066:    4770        pG      BX       lr
        0x00002068:    1a08        ..      SUBS     r0,r1,r0
        0x0000206a:    4770        pG      BX       lr
    i.printC_5x7
    printC_5x7
        0x0000206c:    b5f0        ..      PUSH     {r4-r7,lr}
        0x0000206e:    287b        {(      CMP      r0,#0x7b
        0x00002070:    da20         .      BGE      0x20b4 ; printC_5x7 + 72
        0x00002072:    2939        9)      CMP      r1,#0x39
        0x00002074:    da1e        ..      BGE      0x20b4 ; printC_5x7 + 72
        0x00002076:    2a20         *      CMP      r2,#0x20
        0x00002078:    d301        ..      BCC      0x207e ; printC_5x7 + 18
        0x0000207a:    2a7f        .*      CMP      r2,#0x7f
        0x0000207c:    d901        ..      BLS      0x2082 ; printC_5x7 + 22
        0x0000207e:    2220         "      MOVS     r2,#0x20
        0x00002080:    e001        ..      B        0x2086 ; printC_5x7 + 26
        0x00002082:    3a20         :      SUBS     r2,r2,#0x20
        0x00002084:    b2d2        ..      UXTB     r2,r2
        0x00002086:    2381        .#      MOVS     r3,#0x81
        0x00002088:    1a1e        ..      SUBS     r6,r3,r0
        0x0000208a:    17c8        ..      ASRS     r0,r1,#31
        0x0000208c:    0f40        @.      LSRS     r0,r0,#29
        0x0000208e:    1840        @.      ADDS     r0,r0,r1
        0x00002090:    10c5        ..      ASRS     r5,r0,#3
        0x00002092:    2400        .$      MOVS     r4,#0
        0x00002094:    0090        ..      LSLS     r0,r2,#2
        0x00002096:    1817        ..      ADDS     r7,r2,r0
        0x00002098:    1b30        0.      SUBS     r0,r6,r4
        0x0000209a:    b2c1        ..      UXTB     r1,r0
        0x0000209c:    b2e8        ..      UXTB     r0,r5
        0x0000209e:    f7fff82f    ../.    BL       lcdSetAddr ; 0x1100
        0x000020a2:    4805        .H      LDR      r0,[pc,#20] ; [0x20b8] = 0x200000fa
        0x000020a4:    1939        9.      ADDS     r1,r7,r4
        0x000020a6:    5c40        @\      LDRB     r0,[r0,r1]
        0x000020a8:    f7fff876    ..v.    BL       lcdWriteData ; 0x1198
        0x000020ac:    1c64        d.      ADDS     r4,r4,#1
        0x000020ae:    b2e4        ..      UXTB     r4,r4
        0x000020b0:    2c05        .,      CMP      r4,#5
        0x000020b2:    d3f1        ..      BCC      0x2098 ; printC_5x7 + 44
        0x000020b4:    bdf0        ..      POP      {r4-r7,pc}
    $d
        0x000020b6:    0000        ..      DCW    0
        0x000020b8:    200000fa    ...     DCD    536871162
    $t
    i.printS_5x7
    printS_5x7
        0x000020bc:    b5f8        ..      PUSH     {r3-r7,lr}
        0x000020be:    4616        .F      MOV      r6,r2
        0x000020c0:    460f        .F      MOV      r7,r1
        0x000020c2:    4605        .F      MOV      r5,r0
        0x000020c4:    2400        .$      MOVS     r4,#0
        0x000020c6:    e008        ..      B        0x20da ; printS_5x7 + 30
        0x000020c8:    5d32        2]      LDRB     r2,[r6,r4]
        0x000020ca:    4639        9F      MOV      r1,r7
        0x000020cc:    4628        (F      MOV      r0,r5
        0x000020ce:    f7ffffcd    ....    BL       printC_5x7 ; 0x206c
        0x000020d2:    1d6d        m.      ADDS     r5,r5,#5
        0x000020d4:    1c64        d.      ADDS     r4,r4,#1
        0x000020d6:    b22d        -.      SXTH     r5,r5
        0x000020d8:    b2e4        ..      UXTB     r4,r4
        0x000020da:    4630        0F      MOV      r0,r6
        0x000020dc:    f7fef888    ....    BL       strlen ; 0x1f0
        0x000020e0:    42a0        .B      CMP      r0,r4
        0x000020e2:    d8f1        ..      BHI      0x20c8 ; printS_5x7 + 12
        0x000020e4:    bdf8        ..      POP      {r3-r7,pc}
        0x000020e6:    0000        ..      MOVS     r0,r0
    i.show
    show
        0x000020e8:    b5f0        ..      PUSH     {r4-r7,lr}
        0x000020ea:    4b21        !K      LDR      r3,[pc,#132] ; [0x2170] = 0xfffff3fc
        0x000020ec:    4f22        "O      LDR      r7,[pc,#136] ; [0x2178] = 0xa04
        0x000020ee:    449d        .D      ADD      sp,sp,r3
        0x000020f0:    2401        .$      MOVS     r4,#1
        0x000020f2:    0264        d.      LSLS     r4,r4,#9
        0x000020f4:    446f        oD      ADD      r7,sp,r7
        0x000020f6:    4622        "F      MOV      r2,r4
        0x000020f8:    491e        .I      LDR      r1,[pc,#120] ; [0x2174] = 0x2544
        0x000020fa:    4638        8F      MOV      r0,r7
        0x000020fc:    f7fef866    ..f.    BL       __aeabi_memcpy ; 0x1cc
        0x00002100:    00a2        ..      LSLS     r2,r4,#2
        0x00002102:    491e        .I      LDR      r1,[pc,#120] ; [0x217c] = 0x2744
        0x00002104:    a801        ..      ADD      r0,sp,#4
        0x00002106:    f7fef861    ..a.    BL       __aeabi_memcpy ; 0x1cc
        0x0000210a:    1ff8        ..      SUBS     r0,r7,#7
        0x0000210c:    38ff        .8      SUBS     r0,r0,#0xff
        0x0000210e:    4622        "F      MOV      r2,r4
        0x00002110:    491b        .I      LDR      r1,[pc,#108] ; [0x2180] = 0x2f44
        0x00002112:    38fa        .8      SUBS     r0,r0,#0xfa
        0x00002114:    f7fef85a    ..Z.    BL       __aeabi_memcpy ; 0x1cc
        0x00002118:    f7fefef0    ....    BL       clear_LCD ; 0xefc
        0x0000211c:    4d19        .M      LDR      r5,[pc,#100] ; [0x2184] = 0xffff
        0x0000211e:    4e1a        .N      LDR      r6,[pc,#104] ; [0x2188] = 0xf4240
        0x00002120:    2400        .$      MOVS     r4,#0
        0x00002122:    2300        .#      MOVS     r3,#0
        0x00002124:    462a        *F      MOV      r2,r5
        0x00002126:    4619        .F      MOV      r1,r3
        0x00002128:    2019        .       MOVS     r0,#0x19
        0x0000212a:    9700        ..      STR      r7,[sp,#0]
        0x0000212c:    f7feff56    ..V.    BL       draw_Bmp64x64 ; 0xfdc
        0x00002130:    a216        ..      ADR      r2,{pc}+0x5c ; 0x218c
        0x00002132:    2120         !      MOVS     r1,#0x20
        0x00002134:    2028        (       MOVS     r0,#0x28
        0x00002136:    f7ffffc1    ....    BL       printS_5x7 ; 0x20bc
        0x0000213a:    4630        0F      MOV      r0,r6
        0x0000213c:    f7fefade    ....    BL       CLK_SysTickDelay ; 0x6fc
        0x00002140:    f7fefedc    ....    BL       clear_LCD ; 0xefc
        0x00002144:    4813        .H      LDR      r0,[pc,#76] ; [0x2194] = 0x804
        0x00002146:    2300        .#      MOVS     r3,#0
        0x00002148:    4468        hD      ADD      r0,sp,r0
        0x0000214a:    9000        ..      STR      r0,[sp,#0]
        0x0000214c:    462a        *F      MOV      r2,r5
        0x0000214e:    4619        .F      MOV      r1,r3
        0x00002150:    2016        .       MOVS     r0,#0x16
        0x00002152:    f7feff43    ..C.    BL       draw_Bmp64x64 ; 0xfdc
        0x00002156:    4630        0F      MOV      r0,r6
        0x00002158:    f7fefad0    ....    BL       CLK_SysTickDelay ; 0x6fc
        0x0000215c:    f7fefece    ....    BL       clear_LCD ; 0xefc
        0x00002160:    1c64        d.      ADDS     r4,r4,#1
        0x00002162:    2c03        .,      CMP      r4,#3
        0x00002164:    dbdd        ..      BLT      0x2122 ; show + 58
        0x00002166:    4b02        .K      LDR      r3,[pc,#8] ; [0x2170] = 0xfffff3fc
        0x00002168:    425b        [B      RSBS     r3,r3,#0
        0x0000216a:    449d        .D      ADD      sp,sp,r3
        0x0000216c:    bdf0        ..      POP      {r4-r7,pc}
    $d
        0x0000216e:    0000        ..      DCW    0
        0x00002170:    fffff3fc    ....    DCD    4294964220
        0x00002174:    00002544    D%..    DCD    9540
        0x00002178:    00000a04    ....    DCD    2564
        0x0000217c:    00002744    D'..    DCD    10052
        0x00002180:    00002f44    D/..    DCD    12100
        0x00002184:    0000ffff    ....    DCD    65535
        0x00002188:    000f4240    @B..    DCD    1000000
        0x0000218c:    204f2042    B O     DCD    542056514
        0x00002190:    0042204d    M B.    DCD    4333645
        0x00002194:    00000804    ....    DCD    2052
    $t
    i.showSeven
    showSeven
        0x00002198:    b570        p.      PUSH     {r4-r6,lr}
        0x0000219a:    4605        .F      MOV      r5,r0
        0x0000219c:    207d        }       MOVS     r0,#0x7d
        0x0000219e:    460c        .F      MOV      r4,r1
        0x000021a0:    00c0        ..      LSLS     r0,r0,#3
        0x000021a2:    f7fefaab    ....    BL       CLK_SysTickDelay ; 0x6fc
        0x000021a6:    4b5e        ^K      LDR      r3,[pc,#376] ; [0x2320] = 0x50004280
        0x000021a8:    2200        ."      MOVS     r2,#0
        0x000021aa:    611a        .a      STR      r2,[r3,#0x10]
        0x000021ac:    615a        Za      STR      r2,[r3,#0x14]
        0x000021ae:    619a        .a      STR      r2,[r3,#0x18]
        0x000021b0:    61da        .a      STR      r2,[r3,#0x1c]
        0x000021b2:    2101        .!      MOVS     r1,#1
        0x000021b4:    2d01        .-      CMP      r5,#1
        0x000021b6:    d006        ..      BEQ      0x21c6 ; showSeven + 46
        0x000021b8:    2d02        .-      CMP      r5,#2
        0x000021ba:    d006        ..      BEQ      0x21ca ; showSeven + 50
        0x000021bc:    2d03        .-      CMP      r5,#3
        0x000021be:    d006        ..      BEQ      0x21ce ; showSeven + 54
        0x000021c0:    2d04        .-      CMP      r5,#4
        0x000021c2:    d107        ..      BNE      0x21d4 ; showSeven + 60
        0x000021c4:    e005        ..      B        0x21d2 ; showSeven + 58
        0x000021c6:    6119        .a      STR      r1,[r3,#0x10]
        0x000021c8:    e004        ..      B        0x21d4 ; showSeven + 60
        0x000021ca:    6159        Ya      STR      r1,[r3,#0x14]
        0x000021cc:    e002        ..      B        0x21d4 ; showSeven + 60
        0x000021ce:    6199        .a      STR      r1,[r3,#0x18]
        0x000021d0:    e000        ..      B        0x21d4 ; showSeven + 60
        0x000021d2:    61d9        .a      STR      r1,[r3,#0x1c]
        0x000021d4:    4852        RH      LDR      r0,[pc,#328] ; [0x2320] = 0x50004280
        0x000021d6:    3080        .0      ADDS     r0,r0,#0x80
        0x000021d8:    6001        .`      STR      r1,[r0,#0]
        0x000021da:    6041        A`      STR      r1,[r0,#4]
        0x000021dc:    6081        .`      STR      r1,[r0,#8]
        0x000021de:    60c1        .`      STR      r1,[r0,#0xc]
        0x000021e0:    6101        .a      STR      r1,[r0,#0x10]
        0x000021e2:    6141        Aa      STR      r1,[r0,#0x14]
        0x000021e4:    6181        .a      STR      r1,[r0,#0x18]
        0x000021e6:    61c1        .a      STR      r1,[r0,#0x1c]
        0x000021e8:    2c00        .,      CMP      r4,#0
        0x000021ea:    d015        ..      BEQ      0x2218 ; showSeven + 128
        0x000021ec:    2c01        .,      CMP      r4,#1
        0x000021ee:    d013        ..      BEQ      0x2218 ; showSeven + 128
        0x000021f0:    2c03        .,      CMP      r4,#3
        0x000021f2:    d011        ..      BEQ      0x2218 ; showSeven + 128
        0x000021f4:    2c04        .,      CMP      r4,#4
        0x000021f6:    d00f        ..      BEQ      0x2218 ; showSeven + 128
        0x000021f8:    2c05        .,      CMP      r4,#5
        0x000021fa:    d00d        ..      BEQ      0x2218 ; showSeven + 128
        0x000021fc:    2c06        .,      CMP      r4,#6
        0x000021fe:    d00b        ..      BEQ      0x2218 ; showSeven + 128
        0x00002200:    2c07        .,      CMP      r4,#7
        0x00002202:    d009        ..      BEQ      0x2218 ; showSeven + 128
        0x00002204:    2c08        .,      CMP      r4,#8
        0x00002206:    d007        ..      BEQ      0x2218 ; showSeven + 128
        0x00002208:    2c09        .,      CMP      r4,#9
        0x0000220a:    d005        ..      BEQ      0x2218 ; showSeven + 128
        0x0000220c:    2c73        s,      CMP      r4,#0x73
        0x0000220e:    d003        ..      BEQ      0x2218 ; showSeven + 128
        0x00002210:    2c75        u,      CMP      r4,#0x75
        0x00002212:    d001        ..      BEQ      0x2218 ; showSeven + 128
        0x00002214:    2c6f        o,      CMP      r4,#0x6f
        0x00002216:    d110        ..      BNE      0x223a ; showSeven + 162
        0x00002218:    6002        .`      STR      r2,[r0,#0]
        0x0000221a:    2c00        .,      CMP      r4,#0
        0x0000221c:    d013        ..      BEQ      0x2246 ; showSeven + 174
        0x0000221e:    2c04        .,      CMP      r4,#4
        0x00002220:    d011        ..      BEQ      0x2246 ; showSeven + 174
        0x00002222:    2c05        .,      CMP      r4,#5
        0x00002224:    d00f        ..      BEQ      0x2246 ; showSeven + 174
        0x00002226:    2c06        .,      CMP      r4,#6
        0x00002228:    d00d        ..      BEQ      0x2246 ; showSeven + 174
        0x0000222a:    2c08        .,      CMP      r4,#8
        0x0000222c:    d00b        ..      BEQ      0x2246 ; showSeven + 174
        0x0000222e:    2c09        .,      CMP      r4,#9
        0x00002230:    d009        ..      BEQ      0x2246 ; showSeven + 174
        0x00002232:    2c73        s,      CMP      r4,#0x73
        0x00002234:    d007        ..      BEQ      0x2246 ; showSeven + 174
        0x00002236:    2c75        u,      CMP      r4,#0x75
        0x00002238:    d005        ..      BEQ      0x2246 ; showSeven + 174
        0x0000223a:    2c63        c,      CMP      r4,#0x63
        0x0000223c:    d003        ..      BEQ      0x2246 ; showSeven + 174
        0x0000223e:    2c65        e,      CMP      r4,#0x65
        0x00002240:    d001        ..      BEQ      0x2246 ; showSeven + 174
        0x00002242:    2c4c        L,      CMP      r4,#0x4c
        0x00002244:    d102        ..      BNE      0x224c ; showSeven + 180
        0x00002246:    6082        .`      STR      r2,[r0,#8]
        0x00002248:    2c00        .,      CMP      r4,#0
        0x0000224a:    d013        ..      BEQ      0x2274 ; showSeven + 220
        0x0000224c:    2c02        .,      CMP      r4,#2
        0x0000224e:    d011        ..      BEQ      0x2274 ; showSeven + 220
        0x00002250:    2c03        .,      CMP      r4,#3
        0x00002252:    d00f        ..      BEQ      0x2274 ; showSeven + 220
        0x00002254:    2c05        .,      CMP      r4,#5
        0x00002256:    d00d        ..      BEQ      0x2274 ; showSeven + 220
        0x00002258:    2c06        .,      CMP      r4,#6
        0x0000225a:    d00b        ..      BEQ      0x2274 ; showSeven + 220
        0x0000225c:    2c07        .,      CMP      r4,#7
        0x0000225e:    d009        ..      BEQ      0x2274 ; showSeven + 220
        0x00002260:    2c08        .,      CMP      r4,#8
        0x00002262:    d007        ..      BEQ      0x2274 ; showSeven + 220
        0x00002264:    2c09        .,      CMP      r4,#9
        0x00002266:    d005        ..      BEQ      0x2274 ; showSeven + 220
        0x00002268:    2c73        s,      CMP      r4,#0x73
        0x0000226a:    d003        ..      BEQ      0x2274 ; showSeven + 220
        0x0000226c:    2c63        c,      CMP      r4,#0x63
        0x0000226e:    d001        ..      BEQ      0x2274 ; showSeven + 220
        0x00002270:    2c65        e,      CMP      r4,#0x65
        0x00002272:    d102        ..      BNE      0x227a ; showSeven + 226
        0x00002274:    60c2        .`      STR      r2,[r0,#0xc]
        0x00002276:    2c00        .,      CMP      r4,#0
        0x00002278:    d00f        ..      BEQ      0x229a ; showSeven + 258
        0x0000227a:    2c01        .,      CMP      r4,#1
        0x0000227c:    d00d        ..      BEQ      0x229a ; showSeven + 258
        0x0000227e:    2c02        .,      CMP      r4,#2
        0x00002280:    d00b        ..      BEQ      0x229a ; showSeven + 258
        0x00002282:    2c03        .,      CMP      r4,#3
        0x00002284:    d009        ..      BEQ      0x229a ; showSeven + 258
        0x00002286:    2c04        .,      CMP      r4,#4
        0x00002288:    d007        ..      BEQ      0x229a ; showSeven + 258
        0x0000228a:    2c07        .,      CMP      r4,#7
        0x0000228c:    d005        ..      BEQ      0x229a ; showSeven + 258
        0x0000228e:    2c08        .,      CMP      r4,#8
        0x00002290:    d003        ..      BEQ      0x229a ; showSeven + 258
        0x00002292:    2c09        .,      CMP      r4,#9
        0x00002294:    d001        ..      BEQ      0x229a ; showSeven + 258
        0x00002296:    2c75        u,      CMP      r4,#0x75
        0x00002298:    d106        ..      BNE      0x22a8 ; showSeven + 272
        0x0000229a:    6102        .a      STR      r2,[r0,#0x10]
        0x0000229c:    2c00        .,      CMP      r4,#0
        0x0000229e:    d015        ..      BEQ      0x22cc ; showSeven + 308
        0x000022a0:    2c02        .,      CMP      r4,#2
        0x000022a2:    d013        ..      BEQ      0x22cc ; showSeven + 308
        0x000022a4:    2c03        .,      CMP      r4,#3
        0x000022a6:    d011        ..      BEQ      0x22cc ; showSeven + 308
        0x000022a8:    2c05        .,      CMP      r4,#5
        0x000022aa:    d00f        ..      BEQ      0x22cc ; showSeven + 308
        0x000022ac:    2c06        .,      CMP      r4,#6
        0x000022ae:    d00d        ..      BEQ      0x22cc ; showSeven + 308
        0x000022b0:    2c08        .,      CMP      r4,#8
        0x000022b2:    d00b        ..      BEQ      0x22cc ; showSeven + 308
        0x000022b4:    2c73        s,      CMP      r4,#0x73
        0x000022b6:    d009        ..      BEQ      0x22cc ; showSeven + 308
        0x000022b8:    2c75        u,      CMP      r4,#0x75
        0x000022ba:    d007        ..      BEQ      0x22cc ; showSeven + 308
        0x000022bc:    2c63        c,      CMP      r4,#0x63
        0x000022be:    d005        ..      BEQ      0x22cc ; showSeven + 308
        0x000022c0:    2c65        e,      CMP      r4,#0x65
        0x000022c2:    d003        ..      BEQ      0x22cc ; showSeven + 308
        0x000022c4:    2c6f        o,      CMP      r4,#0x6f
        0x000022c6:    d001        ..      BEQ      0x22cc ; showSeven + 308
        0x000022c8:    2c4c        L,      CMP      r4,#0x4c
        0x000022ca:    d117        ..      BNE      0x22fc ; showSeven + 356
        0x000022cc:    6142        Ba      STR      r2,[r0,#0x14]
        0x000022ce:    2c00        .,      CMP      r4,#0
        0x000022d0:    d00f        ..      BEQ      0x22f2 ; showSeven + 346
        0x000022d2:    2c02        .,      CMP      r4,#2
        0x000022d4:    d00d        ..      BEQ      0x22f2 ; showSeven + 346
        0x000022d6:    2c06        .,      CMP      r4,#6
        0x000022d8:    d00b        ..      BEQ      0x22f2 ; showSeven + 346
        0x000022da:    2c08        .,      CMP      r4,#8
        0x000022dc:    d009        ..      BEQ      0x22f2 ; showSeven + 346
        0x000022de:    2c75        u,      CMP      r4,#0x75
        0x000022e0:    d007        ..      BEQ      0x22f2 ; showSeven + 346
        0x000022e2:    2c63        c,      CMP      r4,#0x63
        0x000022e4:    d005        ..      BEQ      0x22f2 ; showSeven + 346
        0x000022e6:    2c65        e,      CMP      r4,#0x65
        0x000022e8:    d003        ..      BEQ      0x22f2 ; showSeven + 346
        0x000022ea:    2c6f        o,      CMP      r4,#0x6f
        0x000022ec:    d001        ..      BEQ      0x22f2 ; showSeven + 346
        0x000022ee:    2c4c        L,      CMP      r4,#0x4c
        0x000022f0:    d102        ..      BNE      0x22f8 ; showSeven + 352
        0x000022f2:    6182        .a      STR      r2,[r0,#0x18]
        0x000022f4:    2c02        .,      CMP      r4,#2
        0x000022f6:    d011        ..      BEQ      0x231c ; showSeven + 388
        0x000022f8:    2c03        .,      CMP      r4,#3
        0x000022fa:    d00f        ..      BEQ      0x231c ; showSeven + 388
        0x000022fc:    2c04        .,      CMP      r4,#4
        0x000022fe:    d00d        ..      BEQ      0x231c ; showSeven + 388
        0x00002300:    2c05        .,      CMP      r4,#5
        0x00002302:    d00b        ..      BEQ      0x231c ; showSeven + 388
        0x00002304:    2c06        .,      CMP      r4,#6
        0x00002306:    d009        ..      BEQ      0x231c ; showSeven + 388
        0x00002308:    2c08        .,      CMP      r4,#8
        0x0000230a:    d007        ..      BEQ      0x231c ; showSeven + 388
        0x0000230c:    2c09        .,      CMP      r4,#9
        0x0000230e:    d005        ..      BEQ      0x231c ; showSeven + 388
        0x00002310:    2c73        s,      CMP      r4,#0x73
        0x00002312:    d003        ..      BEQ      0x231c ; showSeven + 388
        0x00002314:    2c65        e,      CMP      r4,#0x65
        0x00002316:    d001        ..      BEQ      0x231c ; showSeven + 388
        0x00002318:    2c6f        o,      CMP      r4,#0x6f
        0x0000231a:    d100        ..      BNE      0x231e ; showSeven + 390
        0x0000231c:    61c2        .a      STR      r2,[r0,#0x1c]
        0x0000231e:    bd70        p.      POP      {r4-r6,pc}
    $d
        0x00002320:    50004280    .B.P    DCD    1342194304
    $t
    i.showSuce
    showSuce
        0x00002324:    b5f0        ..      PUSH     {r4-r7,lr}
        0x00002326:    b091        ..      SUB      sp,sp,#0x44
        0x00002328:    223c        <"      MOVS     r2,#0x3c
        0x0000232a:    4930        0I      LDR      r1,[pc,#192] ; [0x23ec] = 0x2508
        0x0000232c:    4668        hF      MOV      r0,sp
        0x0000232e:    f7fdff4d    ..M.    BL       __aeabi_memcpy ; 0x1cc
        0x00002332:    2000        .       MOVS     r0,#0
        0x00002334:    900f        ..      STR      r0,[sp,#0x3c]
        0x00002336:    2600        .&      MOVS     r6,#0
        0x00002338:    2500        .%      MOVS     r5,#0
        0x0000233a:    00b7        ..      LSLS     r7,r6,#2
        0x0000233c:    4668        hF      MOV      r0,sp
        0x0000233e:    183c        <.      ADDS     r4,r7,r0
        0x00002340:    4668        hF      MOV      r0,sp
        0x00002342:    59c1        .Y      LDR      r1,[r0,r7]
        0x00002344:    2900        .)      CMP      r1,#0
        0x00002346:    d002        ..      BEQ      0x234e ; showSuce + 42
        0x00002348:    2004        .       MOVS     r0,#4
        0x0000234a:    f7ffff25    ..%.    BL       showSeven ; 0x2198
        0x0000234e:    6861        ah      LDR      r1,[r4,#4]
        0x00002350:    2900        .)      CMP      r1,#0
        0x00002352:    d002        ..      BEQ      0x235a ; showSuce + 54
        0x00002354:    2003        .       MOVS     r0,#3
        0x00002356:    f7ffff1f    ....    BL       showSeven ; 0x2198
        0x0000235a:    68a1        .h      LDR      r1,[r4,#8]
        0x0000235c:    2900        .)      CMP      r1,#0
        0x0000235e:    d002        ..      BEQ      0x2366 ; showSuce + 66
        0x00002360:    2002        .       MOVS     r0,#2
        0x00002362:    f7ffff19    ....    BL       showSeven ; 0x2198
        0x00002366:    68e1        .h      LDR      r1,[r4,#0xc]
        0x00002368:    2900        .)      CMP      r1,#0
        0x0000236a:    d002        ..      BEQ      0x2372 ; showSuce + 78
        0x0000236c:    2001        .       MOVS     r0,#1
        0x0000236e:    f7ffff13    ....    BL       showSeven ; 0x2198
        0x00002372:    1c6d        m.      ADDS     r5,r5,#1
        0x00002374:    2d64        d-      CMP      r5,#0x64
        0x00002376:    dbe3        ..      BLT      0x2340 ; showSuce + 28
        0x00002378:    1c76        v.      ADDS     r6,r6,#1
        0x0000237a:    2e0f        ..      CMP      r6,#0xf
        0x0000237c:    dbdc        ..      BLT      0x2338 ; showSuce + 20
        0x0000237e:    980f        ..      LDR      r0,[sp,#0x3c]
        0x00002380:    1c40        @.      ADDS     r0,r0,#1
        0x00002382:    900f        ..      STR      r0,[sp,#0x3c]
        0x00002384:    2801        .(      CMP      r0,#1
        0x00002386:    dbd6        ..      BLT      0x2336 ; showSuce + 18
        0x00002388:    f7fef9e0    ....    BL       CloseSevenSegment ; 0x74c
        0x0000238c:    2600        .&      MOVS     r6,#0
        0x0000238e:    4c18        .L      LDR      r4,[pc,#96] ; [0x23f0] = 0x50004200
        0x00002390:    4635        5F      MOV      r5,r6
        0x00002392:    2701        .'      MOVS     r7,#1
        0x00002394:    4817        .H      LDR      r0,[pc,#92] ; [0x23f4] = 0x186a0
        0x00002396:    f7fef9b1    ....    BL       CLK_SysTickDelay ; 0x6fc
        0x0000239a:    6325        %c      STR      r5,[r4,#0x30]
        0x0000239c:    4815        .H      LDR      r0,[pc,#84] ; [0x23f4] = 0x186a0
        0x0000239e:    f7fef9ad    ....    BL       CLK_SysTickDelay ; 0x6fc
        0x000023a2:    6327        'c      STR      r7,[r4,#0x30]
        0x000023a4:    6365        ec      STR      r5,[r4,#0x34]
        0x000023a6:    4813        .H      LDR      r0,[pc,#76] ; [0x23f4] = 0x186a0
        0x000023a8:    f7fef9a8    ....    BL       CLK_SysTickDelay ; 0x6fc
        0x000023ac:    6367        gc      STR      r7,[r4,#0x34]
        0x000023ae:    63a5        .c      STR      r5,[r4,#0x38]
        0x000023b0:    4810        .H      LDR      r0,[pc,#64] ; [0x23f4] = 0x186a0
        0x000023b2:    f7fef9a3    ....    BL       CLK_SysTickDelay ; 0x6fc
        0x000023b6:    6325        %c      STR      r5,[r4,#0x30]
        0x000023b8:    63a5        .c      STR      r5,[r4,#0x38]
        0x000023ba:    480e        .H      LDR      r0,[pc,#56] ; [0x23f4] = 0x186a0
        0x000023bc:    f7fef99e    ....    BL       CLK_SysTickDelay ; 0x6fc
        0x000023c0:    6365        ec      STR      r5,[r4,#0x34]
        0x000023c2:    63a7        .c      STR      r7,[r4,#0x38]
        0x000023c4:    480b        .H      LDR      r0,[pc,#44] ; [0x23f4] = 0x186a0
        0x000023c6:    f7fef999    ....    BL       CLK_SysTickDelay ; 0x6fc
        0x000023ca:    63a5        .c      STR      r5,[r4,#0x38]
        0x000023cc:    6327        'c      STR      r7,[r4,#0x30]
        0x000023ce:    4809        .H      LDR      r0,[pc,#36] ; [0x23f4] = 0x186a0
        0x000023d0:    f7fef994    ....    BL       CLK_SysTickDelay ; 0x6fc
        0x000023d4:    6325        %c      STR      r5,[r4,#0x30]
        0x000023d6:    4807        .H      LDR      r0,[pc,#28] ; [0x23f4] = 0x186a0
        0x000023d8:    f7fef990    ....    BL       CLK_SysTickDelay ; 0x6fc
        0x000023dc:    1c76        v.      ADDS     r6,r6,#1
        0x000023de:    2e02        ..      CMP      r6,#2
        0x000023e0:    dbd8        ..      BLT      0x2394 ; showSuce + 112
        0x000023e2:    6327        'c      STR      r7,[r4,#0x30]
        0x000023e4:    63a7        .c      STR      r7,[r4,#0x38]
        0x000023e6:    6367        gc      STR      r7,[r4,#0x34]
        0x000023e8:    b011        ..      ADD      sp,sp,#0x44
        0x000023ea:    bdf0        ..      POP      {r4-r7,pc}
    $d
        0x000023ec:    00002508    .%..    DCD    9480
        0x000023f0:    50004200    .B.P    DCD    1342194176
        0x000023f4:    000186a0    ....    DCD    100000
    $t
    i.stackDump
    stackDump
        0x000023f8:    b510        ..      PUSH     {r4,lr}
        0x000023fa:    4604        .F      MOV      r4,r0
        0x000023fc:    6801        .h      LDR      r1,[r0,#0]
        0x000023fe:    a010        ..      ADR      r0,{pc}+0x42 ; 0x2440
        0x00002400:    f7fefbd4    ....    BL       __0printf$5 ; 0xbac
        0x00002404:    a011        ..      ADR      r0,{pc}+0x48 ; 0x244c
        0x00002406:    6861        ah      LDR      r1,[r4,#4]
        0x00002408:    f7fefbd0    ....    BL       __0printf$5 ; 0xbac
        0x0000240c:    a012        ..      ADR      r0,{pc}+0x4c ; 0x2458
        0x0000240e:    68a1        .h      LDR      r1,[r4,#8]
        0x00002410:    f7fefbcc    ....    BL       __0printf$5 ; 0xbac
        0x00002414:    a013        ..      ADR      r0,{pc}+0x50 ; 0x2464
        0x00002416:    68e1        .h      LDR      r1,[r4,#0xc]
        0x00002418:    f7fefbc8    ....    BL       __0printf$5 ; 0xbac
        0x0000241c:    a014        ..      ADR      r0,{pc}+0x54 ; 0x2470
        0x0000241e:    6921        !i      LDR      r1,[r4,#0x10]
        0x00002420:    f7fefbc4    ....    BL       __0printf$5 ; 0xbac
        0x00002424:    a015        ..      ADR      r0,{pc}+0x58 ; 0x247c
        0x00002426:    6961        ai      LDR      r1,[r4,#0x14]
        0x00002428:    f7fefbc0    ....    BL       __0printf$5 ; 0xbac
        0x0000242c:    a016        ..      ADR      r0,{pc}+0x5c ; 0x2488
        0x0000242e:    69a1        .i      LDR      r1,[r4,#0x18]
        0x00002430:    f7fefbbc    ....    BL       __0printf$5 ; 0xbac
        0x00002434:    a017        ..      ADR      r0,{pc}+0x60 ; 0x2494
        0x00002436:    69e1        .i      LDR      r1,[r4,#0x1c]
        0x00002438:    f7fefbb8    ....    BL       __0printf$5 ; 0xbac
        0x0000243c:    bd10        ..      POP      {r4,pc}
    $d
        0x0000243e:    0000        ..      DCW    0
        0x00002440:    20203072    r0      DCD    538980466
        0x00002444:    7830203d    = 0x    DCD    2016419901
        0x00002448:    000a7825    %x..    DCD    686117
        0x0000244c:    20203172    r1      DCD    538980722
        0x00002450:    7830203d    = 0x    DCD    2016419901
        0x00002454:    000a7825    %x..    DCD    686117
        0x00002458:    20203272    r2      DCD    538980978
        0x0000245c:    7830203d    = 0x    DCD    2016419901
        0x00002460:    000a7825    %x..    DCD    686117
        0x00002464:    20203372    r3      DCD    538981234
        0x00002468:    7830203d    = 0x    DCD    2016419901
        0x0000246c:    000a7825    %x..    DCD    686117
        0x00002470:    20323172    r12     DCD    540160370
        0x00002474:    7830203d    = 0x    DCD    2016419901
        0x00002478:    000a7825    %x..    DCD    686117
        0x0000247c:    2020726c    lr      DCD    538997356
        0x00002480:    7830203d    = 0x    DCD    2016419901
        0x00002484:    000a7825    %x..    DCD    686117
        0x00002488:    20206370    pc      DCD    538993520
        0x0000248c:    7830203d    = 0x    DCD    2016419901
        0x00002490:    000a7825    %x..    DCD    686117
        0x00002494:    20727370    psr     DCD    544371568
        0x00002498:    7830203d    = 0x    DCD    2016419901
        0x0000249c:    000a7825    %x..    DCD    686117
    $d.realdata
    .constdata
        0x000024a0:    00000000    ....    DCD    0
        0x000024a4:    00000020     ...    DCD    32
        0x000024a8:    00000000    ....    DCD    0
        0x000024ac:    00000004    ....    DCD    4
        0x000024b0:    0000000c    ....    DCD    12
        0x000024b4:    00000024    $...    DCD    36
        0x000024b8:    00000000    ....    DCD    0
        0x000024bc:    00000004    ....    DCD    4
        0x000024c0:    0000002c    ,...    DCD    44
        0x000024c4:    00000000    ....    DCD    0
        0x000024c8:    00000000    ....    DCD    0
        0x000024cc:    00000004    ....    DCD    4
        0x000024d0:    0000002c    ,...    DCD    44
        0x000024d4:    00000000    ....    DCD    0
    .constdata
        0x000024d8:    00000000    ....    DCD    0
        0x000024dc:    00000000    ....    DCD    0
        0x000024e0:    00000000    ....    DCD    0
        0x000024e4:    00000000    ....    DCD    0
        0x000024e8:    0000004c    L...    DCD    76
        0x000024ec:    0000006f    o...    DCD    111
        0x000024f0:    00000073    s...    DCD    115
        0x000024f4:    00000065    e...    DCD    101
        0x000024f8:    00000000    ....    DCD    0
        0x000024fc:    00000000    ....    DCD    0
        0x00002500:    00000000    ....    DCD    0
        0x00002504:    00000000    ....    DCD    0
        0x00002508:    00000000    ....    DCD    0
        0x0000250c:    00000000    ....    DCD    0
        0x00002510:    00000000    ....    DCD    0
        0x00002514:    00000000    ....    DCD    0
        0x00002518:    00000073    s...    DCD    115
        0x0000251c:    00000075    u...    DCD    117
        0x00002520:    00000063    c...    DCD    99
        0x00002524:    00000063    c...    DCD    99
        0x00002528:    00000065    e...    DCD    101
        0x0000252c:    00000073    s...    DCD    115
        0x00002530:    00000073    s...    DCD    115
        0x00002534:    00000000    ....    DCD    0
        0x00002538:    00000000    ....    DCD    0
        0x0000253c:    00000000    ....    DCD    0
        0x00002540:    00000000    ....    DCD    0
        0x00002544:    00000000    ....    DCD    0
        0x00002548:    00000000    ....    DCD    0
        0x0000254c:    00000000    ....    DCD    0
        0x00002550:    00000000    ....    DCD    0
        0x00002554:    00000000    ....    DCD    0
        0x00002558:    00000000    ....    DCD    0
        0x0000255c:    00000000    ....    DCD    0
        0x00002560:    00000000    ....    DCD    0
        0x00002564:    00000000    ....    DCD    0
        0x00002568:    00000000    ....    DCD    0
        0x0000256c:    00000000    ....    DCD    0
        0x00002570:    00000000    ....    DCD    0
        0x00002574:    00000000    ....    DCD    0
        0x00002578:    00000000    ....    DCD    0
        0x0000257c:    00000000    ....    DCD    0
        0x00002580:    00000000    ....    DCD    0
        0x00002584:    00000000    ....    DCD    0
        0x00002588:    00000000    ....    DCD    0
        0x0000258c:    00000000    ....    DCD    0
        0x00002590:    00000000    ....    DCD    0
        0x00002594:    00000000    ....    DCD    0
        0x00002598:    00000000    ....    DCD    0
        0x0000259c:    00000000    ....    DCD    0
        0x000025a0:    00000000    ....    DCD    0
        0x000025a4:    00000000    ....    DCD    0
        0x000025a8:    00000000    ....    DCD    0
        0x000025ac:    00000000    ....    DCD    0
        0x000025b0:    00000000    ....    DCD    0
        0x000025b4:    00000000    ....    DCD    0
        0x000025b8:    00000000    ....    DCD    0
        0x000025bc:    00000000    ....    DCD    0
        0x000025c0:    00000000    ....    DCD    0
        0x000025c4:    00000000    ....    DCD    0
        0x000025c8:    00000000    ....    DCD    0
        0x000025cc:    00000000    ....    DCD    0
        0x000025d0:    00000000    ....    DCD    0
        0x000025d4:    101008fc    ....    DCD    269486332
        0x000025d8:    40002020      .@    DCD    1073750048
        0x000025dc:    40404040    @@@@    DCD    1077952576
        0x000025e0:    10002000    . ..    DCD    268443648
        0x000025e4:    08020208    ....    DCD    134349320
        0x000025e8:    20200010    ..      DCD    538968080
        0x000025ec:    00002020      ..    DCD    8224
        0x000025f0:    200e0200    ...     DCD    537788928
        0x000025f4:    00008040    @...    DCD    32832
        0x000025f8:    00000000    ....    DCD    0
        0x000025fc:    00000000    ....    DCD    0
        0x00002600:    00000000    ....    DCD    0
        0x00002604:    00000000    ....    DCD    0
        0x00002608:    80000000    ....    DCD    2147483648
        0x0000260c:    004040c0    .@@.    DCD    4210880
        0x00002610:    04001020     ...    DCD    67112992
        0x00002614:    00000001    ....    DCD    1
        0x00002618:    00000000    ....    DCD    0
        0x0000261c:    00000000    ....    DCD    0
        0x00002620:    00000000    ....    DCD    0
        0x00002624:    00000000    ....    DCD    0
        0x00002628:    00000000    ....    DCD    0
        0x0000262c:    00000000    ....    DCD    0
        0x00002630:    00000000    ....    DCD    0
        0x00002634:    80000000    ....    DCD    2147483648
        0x00002638:    02050921    !...    DCD    33884449
        0x0000263c:    00000000    ....    DCD    0
        0x00002640:    00000000    ....    DCD    0
        0x00002644:    00000000    ....    DCD    0
        0x00002648:    00000000    ....    DCD    0
        0x0000264c:    00010000    ....    DCD    65536
        0x00002650:    00006c82    .l..    DCD    27778
        0x00002654:    00000000    ....    DCD    0
        0x00002658:    00000000    ....    DCD    0
        0x0000265c:    00000000    ....    DCD    0
        0x00002660:    00000000    ....    DCD    0
        0x00002664:    00000000    ....    DCD    0
        0x00002668:    00000000    ....    DCD    0
        0x0000266c:    00000000    ....    DCD    0
        0x00002670:    00000000    ....    DCD    0
        0x00002674:    0f002040    @ ..    DCD    251666496
        0x00002678:    00000000    ....    DCD    0
        0x0000267c:    00000000    ....    DCD    0
        0x00002680:    00000000    ....    DCD    0
        0x00002684:    00000000    ....    DCD    0
        0x00002688:    00000000    ....    DCD    0
        0x0000268c:    02040000    ....    DCD    33816576
        0x00002690:    01010101    ....    DCD    16843009
        0x00002694:    08040001    ....    DCD    134479873
        0x00002698:    08040404    ....    DCD    134480900
        0x0000269c:    04081020     ...    DCD    67637280
        0x000026a0:    00000004    ....    DCD    4
        0x000026a4:    00000400    ....    DCD    1024
        0x000026a8:    00086020     `..    DCD    548896
        0x000026ac:    00000100    ....    DCD    256
        0x000026b0:    03010000    ....    DCD    50397184
        0x000026b4:    00000000    ....    DCD    0
        0x000026b8:    00000000    ....    DCD    0
        0x000026bc:    00000000    ....    DCD    0
        0x000026c0:    00000000    ....    DCD    0
        0x000026c4:    00000000    ....    DCD    0
        0x000026c8:    00000000    ....    DCD    0
        0x000026cc:    00000000    ....    DCD    0
        0x000026d0:    00000000    ....    DCD    0
        0x000026d4:    00000000    ....    DCD    0
        0x000026d8:    00000000    ....    DCD    0
        0x000026dc:    00000000    ....    DCD    0
        0x000026e0:    00000000    ....    DCD    0
        0x000026e4:    00000000    ....    DCD    0
        0x000026e8:    00000000    ....    DCD    0
        0x000026ec:    00000000    ....    DCD    0
        0x000026f0:    00000000    ....    DCD    0
        0x000026f4:    00000000    ....    DCD    0
        0x000026f8:    00000000    ....    DCD    0
        0x000026fc:    00000000    ....    DCD    0
        0x00002700:    00000000    ....    DCD    0
        0x00002704:    00000000    ....    DCD    0
        0x00002708:    00000000    ....    DCD    0
        0x0000270c:    00000000    ....    DCD    0
        0x00002710:    00000000    ....    DCD    0
        0x00002714:    00000000    ....    DCD    0
        0x00002718:    00000000    ....    DCD    0
        0x0000271c:    00000000    ....    DCD    0
        0x00002720:    00000000    ....    DCD    0
        0x00002724:    00000000    ....    DCD    0
        0x00002728:    00000000    ....    DCD    0
        0x0000272c:    00000000    ....    DCD    0
        0x00002730:    00000000    ....    DCD    0
        0x00002734:    00000000    ....    DCD    0
        0x00002738:    00000000    ....    DCD    0
        0x0000273c:    00000000    ....    DCD    0
        0x00002740:    00000000    ....    DCD    0
        0x00002744:    00000000    ....    DCD    0
        0x00002748:    00000000    ....    DCD    0
        0x0000274c:    00000000    ....    DCD    0
        0x00002750:    00000000    ....    DCD    0
        0x00002754:    00000000    ....    DCD    0
        0x00002758:    00000000    ....    DCD    0
        0x0000275c:    00000000    ....    DCD    0
        0x00002760:    00000000    ....    DCD    0
        0x00002764:    00000000    ....    DCD    0
        0x00002768:    00000000    ....    DCD    0
        0x0000276c:    00000000    ....    DCD    0
        0x00002770:    00000000    ....    DCD    0
        0x00002774:    00000000    ....    DCD    0
        0x00002778:    00000000    ....    DCD    0
        0x0000277c:    00000000    ....    DCD    0
        0x00002780:    00000000    ....    DCD    0
        0x00002784:    00000000    ....    DCD    0
        0x00002788:    00000000    ....    DCD    0
        0x0000278c:    00000000    ....    DCD    0
        0x00002790:    00000000    ....    DCD    0
        0x00002794:    00000000    ....    DCD    0
        0x00002798:    00000000    ....    DCD    0
        0x0000279c:    00000000    ....    DCD    0
        0x000027a0:    00000000    ....    DCD    0
        0x000027a4:    00000000    ....    DCD    0
        0x000027a8:    00000000    ....    DCD    0
        0x000027ac:    00000000    ....    DCD    0
        0x000027b0:    00000000    ....    DCD    0
        0x000027b4:    00000000    ....    DCD    0
        0x000027b8:    00000000    ....    DCD    0
        0x000027bc:    00000000    ....    DCD    0
        0x000027c0:    00000000    ....    DCD    0
        0x000027c4:    00000000    ....    DCD    0
        0x000027c8:    00000000    ....    DCD    0
        0x000027cc:    00000000    ....    DCD    0
        0x000027d0:    00000000    ....    DCD    0
        0x000027d4:    00000000    ....    DCD    0
        0x000027d8:    00000000    ....    DCD    0
        0x000027dc:    00000000    ....    DCD    0
        0x000027e0:    00000000    ....    DCD    0
        0x000027e4:    00000000    ....    DCD    0
        0x000027e8:    00000000    ....    DCD    0
        0x000027ec:    00000000    ....    DCD    0
        0x000027f0:    00000000    ....    DCD    0
        0x000027f4:    00000000    ....    DCD    0
        0x000027f8:    00000000    ....    DCD    0
        0x000027fc:    00000000    ....    DCD    0
        0x00002800:    00000000    ....    DCD    0
        0x00002804:    00000000    ....    DCD    0
        0x00002808:    00000000    ....    DCD    0
        0x0000280c:    00000000    ....    DCD    0
        0x00002810:    00000000    ....    DCD    0
        0x00002814:    00000000    ....    DCD    0
        0x00002818:    00000000    ....    DCD    0
        0x0000281c:    00000000    ....    DCD    0
        0x00002820:    00000000    ....    DCD    0
        0x00002824:    00000000    ....    DCD    0
        0x00002828:    00000000    ....    DCD    0
        0x0000282c:    00000000    ....    DCD    0
        0x00002830:    00000000    ....    DCD    0
        0x00002834:    00000000    ....    DCD    0
        0x00002838:    00000000    ....    DCD    0
        0x0000283c:    00000000    ....    DCD    0
        0x00002840:    00000000    ....    DCD    0
        0x00002844:    00000000    ....    DCD    0
        0x00002848:    00000000    ....    DCD    0
        0x0000284c:    00000000    ....    DCD    0
        0x00002850:    00000000    ....    DCD    0
        0x00002854:    00000000    ....    DCD    0
        0x00002858:    00000000    ....    DCD    0
        0x0000285c:    00000000    ....    DCD    0
        0x00002860:    00000000    ....    DCD    0
        0x00002864:    00000000    ....    DCD    0
        0x00002868:    00000000    ....    DCD    0
        0x0000286c:    00000000    ....    DCD    0
        0x00002870:    00000000    ....    DCD    0
        0x00002874:    00000000    ....    DCD    0
        0x00002878:    00000000    ....    DCD    0
        0x0000287c:    00000000    ....    DCD    0
        0x00002880:    00000000    ....    DCD    0
        0x00002884:    00000000    ....    DCD    0
        0x00002888:    00000000    ....    DCD    0
        0x0000288c:    00000000    ....    DCD    0
        0x00002890:    00000000    ....    DCD    0
        0x00002894:    00000000    ....    DCD    0
        0x00002898:    00000000    ....    DCD    0
        0x0000289c:    00000000    ....    DCD    0
        0x000028a0:    00000000    ....    DCD    0
        0x000028a4:    00000000    ....    DCD    0
        0x000028a8:    00000000    ....    DCD    0
        0x000028ac:    00000000    ....    DCD    0
        0x000028b0:    00000000    ....    DCD    0
        0x000028b4:    00000000    ....    DCD    0
        0x000028b8:    00000000    ....    DCD    0
        0x000028bc:    00000000    ....    DCD    0
        0x000028c0:    00000000    ....    DCD    0
        0x000028c4:    00000000    ....    DCD    0
        0x000028c8:    00000000    ....    DCD    0
        0x000028cc:    00000000    ....    DCD    0
        0x000028d0:    00000000    ....    DCD    0
        0x000028d4:    00000000    ....    DCD    0
        0x000028d8:    00000000    ....    DCD    0
        0x000028dc:    00000000    ....    DCD    0
        0x000028e0:    00000000    ....    DCD    0
        0x000028e4:    00000000    ....    DCD    0
        0x000028e8:    00000000    ....    DCD    0
        0x000028ec:    00000000    ....    DCD    0
        0x000028f0:    00000000    ....    DCD    0
        0x000028f4:    00000000    ....    DCD    0
        0x000028f8:    00000000    ....    DCD    0
        0x000028fc:    00000000    ....    DCD    0
        0x00002900:    00000000    ....    DCD    0
        0x00002904:    00000000    ....    DCD    0
        0x00002908:    00000000    ....    DCD    0
        0x0000290c:    00000000    ....    DCD    0
        0x00002910:    00000000    ....    DCD    0
        0x00002914:    00000000    ....    DCD    0
        0x00002918:    00000000    ....    DCD    0
        0x0000291c:    00000000    ....    DCD    0
        0x00002920:    00000000    ....    DCD    0
        0x00002924:    00000000    ....    DCD    0
        0x00002928:    00000000    ....    DCD    0
        0x0000292c:    00000000    ....    DCD    0
        0x00002930:    00000000    ....    DCD    0
        0x00002934:    00000000    ....    DCD    0
        0x00002938:    00000000    ....    DCD    0
        0x0000293c:    00000000    ....    DCD    0
        0x00002940:    00000000    ....    DCD    0
        0x00002944:    00000000    ....    DCD    0
        0x00002948:    00000000    ....    DCD    0
        0x0000294c:    00000000    ....    DCD    0
        0x00002950:    00000000    ....    DCD    0
        0x00002954:    00000000    ....    DCD    0
        0x00002958:    00000000    ....    DCD    0
        0x0000295c:    00000000    ....    DCD    0
        0x00002960:    00000000    ....    DCD    0
        0x00002964:    80c060f0    .`..    DCD    2160091376
        0x00002968:    00000080    ....    DCD    128
        0x0000296c:    00000000    ....    DCD    0
        0x00002970:    00000000    ....    DCD    0
        0x00002974:    00000000    ....    DCD    0
        0x00002978:    00000000    ....    DCD    0
        0x0000297c:    00000000    ....    DCD    0
        0x00002980:    80000000    ....    DCD    2147483648
        0x00002984:    0e1860c0    .`..    DCD    236478656
        0x00002988:    c0601806    ..`.    DCD    3227523078
        0x0000298c:    00000080    ....    DCD    128
        0x00002990:    00000000    ....    DCD    0
        0x00002994:    00000000    ....    DCD    0
        0x00002998:    80000000    ....    DCD    2147483648
        0x0000299c:    0e183040    @0..    DCD    236466240
        0x000029a0:    0000e07e    ~...    DCD    57470
        0x000029a4:    00000000    ....    DCD    0
        0x000029a8:    00000000    ....    DCD    0
        0x000029ac:    00000000    ....    DCD    0
        0x000029b0:    00000000    ....    DCD    0
        0x000029b4:    00000000    ....    DCD    0
        0x000029b8:    00000000    ....    DCD    0
        0x000029bc:    00000000    ....    DCD    0
        0x000029c0:    00000000    ....    DCD    0
        0x000029c4:    00000000    ....    DCD    0
        0x000029c8:    00000000    ....    DCD    0
        0x000029cc:    00000000    ....    DCD    0
        0x000029d0:    00000000    ....    DCD    0
        0x000029d4:    00000000    ....    DCD    0
        0x000029d8:    00000000    ....    DCD    0
        0x000029dc:    00000000    ....    DCD    0
        0x000029e0:    00000000    ....    DCD    0
        0x000029e4:    000000ff    ....    DCD    255
        0x000029e8:    06020301    ....    DCD    100795137
        0x000029ec:    080c0404    ....    DCD    135005188
        0x000029f0:    10101808    ....    DCD    269490184
        0x000029f4:    10101010    ....    DCD    269488144
        0x000029f8:    10101010    ....    DCD    269488144
        0x000029fc:    0c081810    ....    DCD    201857040
        0x00002a00:    01030204    ....    DCD    16974340
        0x00002a04:    00000000    ....    DCD    0
        0x00002a08:    00000000    ....    DCD    0
        0x00002a0c:    04060301    ....    DCD    67502849
        0x00002a10:    0808080c    ....    DCD    134744076
        0x00002a14:    040c0808    ....    DCD    67897352
        0x00002a18:    00010206    ....    DCD    66054
        0x00002a1c:    00000000    ....    DCD    0
        0x00002a20:    1c070100    ....    DCD    470221056
        0x00002a24:    c0402010    . @.    DCD    3225427984
        0x00002a28:    00008080    ....    DCD    32896
        0x00002a2c:    00000000    ....    DCD    0
        0x00002a30:    00000000    ....    DCD    0
        0x00002a34:    00000000    ....    DCD    0
        0x00002a38:    00000000    ....    DCD    0
        0x00002a3c:    00000000    ....    DCD    0
        0x00002a40:    00000000    ....    DCD    0
        0x00002a44:    00000000    ....    DCD    0
        0x00002a48:    00000000    ....    DCD    0
        0x00002a4c:    00000000    ....    DCD    0
        0x00002a50:    00000000    ....    DCD    0
        0x00002a54:    00000000    ....    DCD    0
        0x00002a58:    00000000    ....    DCD    0
        0x00002a5c:    00000000    ....    DCD    0
        0x00002a60:    3c60c000    ..`<    DCD    1012973568
        0x00002a64:    00000007    ....    DCD    7
        0x00002a68:    00000000    ....    DCD    0
        0x00002a6c:    00000000    ....    DCD    0
        0x00002a70:    00000000    ....    DCD    0
        0x00002a74:    00000000    ....    DCD    0
        0x00002a78:    00000000    ....    DCD    0
        0x00002a7c:    00000000    ....    DCD    0
        0x00002a80:    00000000    ....    DCD    0
        0x00002a84:    00000000    ....    DCD    0
        0x00002a88:    00000000    ....    DCD    0
        0x00002a8c:    00000000    ....    DCD    0
        0x00002a90:    00000000    ....    DCD    0
        0x00002a94:    00000000    ....    DCD    0
        0x00002a98:    00000000    ....    DCD    0
        0x00002a9c:    00000000    ....    DCD    0
        0x00002aa0:    00000000    ....    DCD    0
        0x00002aa4:    00000000    ....    DCD    0
        0x00002aa8:    01010100    ....    DCD    16843008
        0x00002aac:    42820301    ...B    DCD    1115816705
        0x00002ab0:    060e1222    "...    DCD    101585442
        0x00002ab4:    00000002    ....    DCD    2
        0x00002ab8:    00000000    ....    DCD    0
        0x00002abc:    00000000    ....    DCD    0
        0x00002ac0:    00000000    ....    DCD    0
        0x00002ac4:    00000000    ....    DCD    0
        0x00002ac8:    00000000    ....    DCD    0
        0x00002acc:    40000000    ...@    DCD    1073741824
        0x00002ad0:    e0606040    @``.    DCD    3764412480
        0x00002ad4:    90b0a0e0    ....    DCD    2427494624
        0x00002ad8:    08181010    ....    DCD    135794704
        0x00002adc:    0206040c    ....    DCD    33948684
        0x00002ae0:    00000101    ....    DCD    257
        0x00002ae4:    00000000    ....    DCD    0
        0x00002ae8:    00000000    ....    DCD    0
        0x00002aec:    00000000    ....    DCD    0
        0x00002af0:    00000000    ....    DCD    0
        0x00002af4:    00000000    ....    DCD    0
        0x00002af8:    00000000    ....    DCD    0
        0x00002afc:    00000000    ....    DCD    0
        0x00002b00:    00000000    ....    DCD    0
        0x00002b04:    00000000    ....    DCD    0
        0x00002b08:    00000000    ....    DCD    0
        0x00002b0c:    00000000    ....    DCD    0
        0x00002b10:    00000000    ....    DCD    0
        0x00002b14:    00000000    ....    DCD    0
        0x00002b18:    00000000    ....    DCD    0
        0x00002b1c:    00000000    ....    DCD    0
        0x00002b20:    00000000    ....    DCD    0
        0x00002b24:    00000000    ....    DCD    0
        0x00002b28:    70c00000    ...p    DCD    1891631104
        0x00002b2c:    0001030c    ....    DCD    66316
        0x00002b30:    00000000    ....    DCD    0
        0x00002b34:    00000000    ....    DCD    0
        0x00002b38:    00000000    ....    DCD    0
        0x00002b3c:    00000000    ....    DCD    0
        0x00002b40:    00000000    ....    DCD    0
        0x00002b44:    00000000    ....    DCD    0
        0x00002b48:    00000000    ....    DCD    0
        0x00002b4c:    00000000    ....    DCD    0
        0x00002b50:    00000000    ....    DCD    0
        0x00002b54:    01000000    ....    DCD    16777216
        0x00002b58:    04060301    ....    DCD    67502849
        0x00002b5c:    c070180c    ..p.    DCD    3228571660
        0x00002b60:    00000000    ....    DCD    0
        0x00002b64:    00000000    ....    DCD    0
        0x00002b68:    00000000    ....    DCD    0
        0x00002b6c:    00000000    ....    DCD    0
        0x00002b70:    00000000    ....    DCD    0
        0x00002b74:    00000000    ....    DCD    0
        0x00002b78:    00000000    ....    DCD    0
        0x00002b7c:    00000000    ....    DCD    0
        0x00002b80:    00000000    ....    DCD    0
        0x00002b84:    00000000    ....    DCD    0
        0x00002b88:    00000000    ....    DCD    0
        0x00002b8c:    00000000    ....    DCD    0
        0x00002b90:    00000000    ....    DCD    0
        0x00002b94:    00000000    ....    DCD    0
        0x00002b98:    00000000    ....    DCD    0
        0x00002b9c:    00000000    ....    DCD    0
        0x00002ba0:    00000000    ....    DCD    0
        0x00002ba4:    00000000    ....    DCD    0
        0x00002ba8:    c07f0000    ....    DCD    3229548544
        0x00002bac:    00000000    ....    DCD    0
        0x00002bb0:    00000000    ....    DCD    0
        0x00002bb4:    00000000    ....    DCD    0
        0x00002bb8:    00000000    ....    DCD    0
        0x00002bbc:    00000000    ....    DCD    0
        0x00002bc0:    00000000    ....    DCD    0
        0x00002bc4:    00000000    ....    DCD    0
        0x00002bc8:    00000000    ....    DCD    0
        0x00002bcc:    00000000    ....    DCD    0
        0x00002bd0:    00000000    ....    DCD    0
        0x00002bd4:    00000000    ....    DCD    0
        0x00002bd8:    00000000    ....    DCD    0
        0x00002bdc:    0f38c080    ..8.    DCD    255377536
        0x00002be0:    00000000    ....    DCD    0
        0x00002be4:    00000000    ....    DCD    0
        0x00002be8:    00000000    ....    DCD    0
        0x00002bec:    00000000    ....    DCD    0
        0x00002bf0:    00000000    ....    DCD    0
        0x00002bf4:    00000000    ....    DCD    0
        0x00002bf8:    00000000    ....    DCD    0
        0x00002bfc:    00000000    ....    DCD    0
        0x00002c00:    00000000    ....    DCD    0
        0x00002c04:    00000000    ....    DCD    0
        0x00002c08:    00000000    ....    DCD    0
        0x00002c0c:    00000000    ....    DCD    0
        0x00002c10:    00000000    ....    DCD    0
        0x00002c14:    00000000    ....    DCD    0
        0x00002c18:    00000000    ....    DCD    0
        0x00002c1c:    00000000    ....    DCD    0
        0x00002c20:    80000000    ....    DCD    2147483648
        0x00002c24:    0c083060    `0..    DCD    201863264
        0x00002c28:    07060404    ....    DCD    117834756
        0x00002c2c:    00000007    ....    DCD    7
        0x00002c30:    00000000    ....    DCD    0
        0x00002c34:    00000000    ....    DCD    0
        0x00002c38:    00000000    ....    DCD    0
        0x00002c3c:    00000000    ....    DCD    0
        0x00002c40:    00000000    ....    DCD    0
        0x00002c44:    00000000    ....    DCD    0
        0x00002c48:    00000000    ....    DCD    0
        0x00002c4c:    00000000    ....    DCD    0
        0x00002c50:    00000000    ....    DCD    0
        0x00002c54:    00000000    ....    DCD    0
        0x00002c58:    0e0c1810    ....    DCD    235673616
        0x00002c5c:    02020607    ....    DCD    33687047
        0x00002c60:    03030303    ....    DCD    50529027
        0x00002c64:    04060203    ....    DCD    67502595
        0x00002c68:    60c0f018    ...`    DCD    1623257112
        0x00002c6c:    30302020      00    DCD    808460320
        0x00002c70:    80402020      @.    DCD    2151686176
        0x00002c74:    00000000    ....    DCD    0
        0x00002c78:    20604080    .@`     DCD    543178880
        0x00002c7c:    08081810    ....    DCD    134748176
        0x00002c80:    08080808    ....    DCD    134744072
        0x00002c84:    30101808    ...0    DCD    806361096
        0x00002c88:    00804020     @..    DCD    8405024
        0x00002c8c:    00000000    ....    DCD    0
        0x00002c90:    081060c0    .`..    DCD    135291072
        0x00002c94:    03020604    ....    DCD    50464260
        0x00002c98:    01010101    ....    DCD    16843009
        0x00002c9c:    01010101    ....    DCD    16843009
        0x00002ca0:    0f060203    ....    DCD    252051971
        0x00002ca4:    00000008    ....    DCD    8
        0x00002ca8:    00000000    ....    DCD    0
        0x00002cac:    00000000    ....    DCD    0
        0x00002cb0:    00000000    ....    DCD    0
        0x00002cb4:    00000000    ....    DCD    0
        0x00002cb8:    00000000    ....    DCD    0
        0x00002cbc:    00000000    ....    DCD    0
        0x00002cc0:    00000000    ....    DCD    0
        0x00002cc4:    00000000    ....    DCD    0
        0x00002cc8:    00000000    ....    DCD    0
        0x00002ccc:    00000000    ....    DCD    0
        0x00002cd0:    00000000    ....    DCD    0
        0x00002cd4:    00000000    ....    DCD    0
        0x00002cd8:    00000000    ....    DCD    0
        0x00002cdc:    00000000    ....    DCD    0
        0x00002ce0:    00000000    ....    DCD    0
        0x00002ce4:    00000000    ....    DCD    0
        0x00002ce8:    00010100    ....    DCD    65792
        0x00002cec:    00000000    ....    DCD    0
        0x00002cf0:    01000000    ....    DCD    16777216
        0x00002cf4:    03060c1e    ....    DCD    50727966
        0x00002cf8:    00000000    ....    DCD    0
        0x00002cfc:    00000000    ....    DCD    0
        0x00002d00:    00000000    ....    DCD    0
        0x00002d04:    00000000    ....    DCD    0
        0x00002d08:    03000000    ....    DCD    50331648
        0x00002d0c:    7f781c06    ..x.    DCD    2138577926
        0x00002d10:    00000001    ....    DCD    1
        0x00002d14:    00000000    ....    DCD    0
        0x00002d18:    00000000    ....    DCD    0
        0x00002d1c:    00000000    ....    DCD    0
        0x00002d20:    00000000    ....    DCD    0
        0x00002d24:    00000000    ....    DCD    0
        0x00002d28:    00000000    ....    DCD    0
        0x00002d2c:    00000000    ....    DCD    0
        0x00002d30:    00000000    ....    DCD    0
        0x00002d34:    00000000    ....    DCD    0
        0x00002d38:    00000000    ....    DCD    0
        0x00002d3c:    00000000    ....    DCD    0
        0x00002d40:    00000000    ....    DCD    0
        0x00002d44:    00000000    ....    DCD    0
        0x00002d48:    00000000    ....    DCD    0
        0x00002d4c:    00000000    ....    DCD    0
        0x00002d50:    00000000    ....    DCD    0
        0x00002d54:    00000000    ....    DCD    0
        0x00002d58:    00000000    ....    DCD    0
        0x00002d5c:    00000000    ....    DCD    0
        0x00002d60:    00000000    ....    DCD    0
        0x00002d64:    00000000    ....    DCD    0
        0x00002d68:    00000000    ....    DCD    0
        0x00002d6c:    00000000    ....    DCD    0
        0x00002d70:    00000000    ....    DCD    0
        0x00002d74:    00000000    ....    DCD    0
        0x00002d78:    00000000    ....    DCD    0
        0x00002d7c:    00000000    ....    DCD    0
        0x00002d80:    00000000    ....    DCD    0
        0x00002d84:    00000000    ....    DCD    0
        0x00002d88:    00000000    ....    DCD    0
        0x00002d8c:    00000000    ....    DCD    0
        0x00002d90:    00000000    ....    DCD    0
        0x00002d94:    00000000    ....    DCD    0
        0x00002d98:    00000000    ....    DCD    0
        0x00002d9c:    00000000    ....    DCD    0
        0x00002da0:    00000000    ....    DCD    0
        0x00002da4:    00000000    ....    DCD    0
        0x00002da8:    00000000    ....    DCD    0
        0x00002dac:    00000000    ....    DCD    0
        0x00002db0:    00000000    ....    DCD    0
        0x00002db4:    00000000    ....    DCD    0
        0x00002db8:    00000000    ....    DCD    0
        0x00002dbc:    00000000    ....    DCD    0
        0x00002dc0:    00000000    ....    DCD    0
        0x00002dc4:    00000000    ....    DCD    0
        0x00002dc8:    00000000    ....    DCD    0
        0x00002dcc:    00000000    ....    DCD    0
        0x00002dd0:    00000000    ....    DCD    0
        0x00002dd4:    00000000    ....    DCD    0
        0x00002dd8:    00000000    ....    DCD    0
        0x00002ddc:    00000000    ....    DCD    0
        0x00002de0:    00000000    ....    DCD    0
        0x00002de4:    00000000    ....    DCD    0
        0x00002de8:    00000000    ....    DCD    0
        0x00002dec:    00000000    ....    DCD    0
        0x00002df0:    00000000    ....    DCD    0
        0x00002df4:    00000000    ....    DCD    0
        0x00002df8:    00000000    ....    DCD    0
        0x00002dfc:    00000000    ....    DCD    0
        0x00002e00:    00000000    ....    DCD    0
        0x00002e04:    00000000    ....    DCD    0
        0x00002e08:    00000000    ....    DCD    0
        0x00002e0c:    00000000    ....    DCD    0
        0x00002e10:    00000000    ....    DCD    0
        0x00002e14:    00000000    ....    DCD    0
        0x00002e18:    00000000    ....    DCD    0
        0x00002e1c:    00000000    ....    DCD    0
        0x00002e20:    00000000    ....    DCD    0
        0x00002e24:    00000000    ....    DCD    0
        0x00002e28:    00000000    ....    DCD    0
        0x00002e2c:    00000000    ....    DCD    0
        0x00002e30:    00000000    ....    DCD    0
        0x00002e34:    00000000    ....    DCD    0
        0x00002e38:    00000000    ....    DCD    0
        0x00002e3c:    00000000    ....    DCD    0
        0x00002e40:    00000000    ....    DCD    0
        0x00002e44:    00000000    ....    DCD    0
        0x00002e48:    00000000    ....    DCD    0
        0x00002e4c:    00000000    ....    DCD    0
        0x00002e50:    00000000    ....    DCD    0
        0x00002e54:    00000000    ....    DCD    0
        0x00002e58:    00000000    ....    DCD    0
        0x00002e5c:    00000000    ....    DCD    0
        0x00002e60:    00000000    ....    DCD    0
        0x00002e64:    00000000    ....    DCD    0
        0x00002e68:    00000000    ....    DCD    0
        0x00002e6c:    00000000    ....    DCD    0
        0x00002e70:    00000000    ....    DCD    0
        0x00002e74:    00000000    ....    DCD    0
        0x00002e78:    00000000    ....    DCD    0
        0x00002e7c:    00000000    ....    DCD    0
        0x00002e80:    00000000    ....    DCD    0
        0x00002e84:    00000000    ....    DCD    0
        0x00002e88:    00000000    ....    DCD    0
        0x00002e8c:    00000000    ....    DCD    0
        0x00002e90:    00000000    ....    DCD    0
        0x00002e94:    00000000    ....    DCD    0
        0x00002e98:    00000000    ....    DCD    0
        0x00002e9c:    00000000    ....    DCD    0
        0x00002ea0:    00000000    ....    DCD    0
        0x00002ea4:    00000000    ....    DCD    0
        0x00002ea8:    00000000    ....    DCD    0
        0x00002eac:    00000000    ....    DCD    0
        0x00002eb0:    00000000    ....    DCD    0
        0x00002eb4:    00000000    ....    DCD    0
        0x00002eb8:    00000000    ....    DCD    0
        0x00002ebc:    00000000    ....    DCD    0
        0x00002ec0:    00000000    ....    DCD    0
        0x00002ec4:    00000000    ....    DCD    0
        0x00002ec8:    00000000    ....    DCD    0
        0x00002ecc:    00000000    ....    DCD    0
        0x00002ed0:    00000000    ....    DCD    0
        0x00002ed4:    00000000    ....    DCD    0
        0x00002ed8:    00000000    ....    DCD    0
        0x00002edc:    00000000    ....    DCD    0
        0x00002ee0:    00000000    ....    DCD    0
        0x00002ee4:    00000000    ....    DCD    0
        0x00002ee8:    00000000    ....    DCD    0
        0x00002eec:    00000000    ....    DCD    0
        0x00002ef0:    00000000    ....    DCD    0
        0x00002ef4:    00000000    ....    DCD    0
        0x00002ef8:    00000000    ....    DCD    0
        0x00002efc:    00000000    ....    DCD    0
        0x00002f00:    00000000    ....    DCD    0
        0x00002f04:    00000000    ....    DCD    0
        0x00002f08:    00000000    ....    DCD    0
        0x00002f0c:    00000000    ....    DCD    0
        0x00002f10:    00000000    ....    DCD    0
        0x00002f14:    00000000    ....    DCD    0
        0x00002f18:    00000000    ....    DCD    0
        0x00002f1c:    00000000    ....    DCD    0
        0x00002f20:    00000000    ....    DCD    0
        0x00002f24:    00000000    ....    DCD    0
        0x00002f28:    00000000    ....    DCD    0
        0x00002f2c:    00000000    ....    DCD    0
        0x00002f30:    00000000    ....    DCD    0
        0x00002f34:    00000000    ....    DCD    0
        0x00002f38:    00000000    ....    DCD    0
        0x00002f3c:    00000000    ....    DCD    0
        0x00002f40:    00000000    ....    DCD    0
        0x00002f44:    00000000    ....    DCD    0
        0x00002f48:    00000000    ....    DCD    0
        0x00002f4c:    00000000    ....    DCD    0
        0x00002f50:    00000000    ....    DCD    0
        0x00002f54:    00000000    ....    DCD    0
        0x00002f58:    00000000    ....    DCD    0
        0x00002f5c:    00000000    ....    DCD    0
        0x00002f60:    00000000    ....    DCD    0
        0x00002f64:    00000000    ....    DCD    0
        0x00002f68:    00000000    ....    DCD    0
        0x00002f6c:    00000000    ....    DCD    0
        0x00002f70:    00000000    ....    DCD    0
        0x00002f74:    00000000    ....    DCD    0
        0x00002f78:    00000000    ....    DCD    0
        0x00002f7c:    00000000    ....    DCD    0
        0x00002f80:    00000000    ....    DCD    0
        0x00002f84:    00000000    ....    DCD    0
        0x00002f88:    00000000    ....    DCD    0
        0x00002f8c:    00000000    ....    DCD    0
        0x00002f90:    00000000    ....    DCD    0
        0x00002f94:    00000000    ....    DCD    0
        0x00002f98:    00000000    ....    DCD    0
        0x00002f9c:    00000000    ....    DCD    0
        0x00002fa0:    00000000    ....    DCD    0
        0x00002fa4:    00000000    ....    DCD    0
        0x00002fa8:    00000000    ....    DCD    0
        0x00002fac:    00000000    ....    DCD    0
        0x00002fb0:    00000000    ....    DCD    0
        0x00002fb4:    00000000    ....    DCD    0
        0x00002fb8:    00000000    ....    DCD    0
        0x00002fbc:    00000000    ....    DCD    0
        0x00002fc0:    00000000    ....    DCD    0
        0x00002fc4:    00000000    ....    DCD    0
        0x00002fc8:    00000000    ....    DCD    0
        0x00002fcc:    00000000    ....    DCD    0
        0x00002fd0:    08f40000    ....    DCD    150208512
        0x00002fd4:    20201000    ..      DCD    538972160
        0x00002fd8:    00404040    @@@.    DCD    4210752
        0x00002fdc:    80808000    ....    DCD    2155905024
        0x00002fe0:    20604000    .@`     DCD    543178752
        0x00002fe4:    01020810    ....    DCD    16910352
        0x00002fe8:    20100c03    ...     DCD    537922563
        0x00002fec:    40404020     @@@    DCD    1077952544
        0x00002ff0:    08102020      ..    DCD    135274528
        0x00002ff4:    10070304    ....    DCD    268894980
        0x00002ff8:    00008040    @...    DCD    32832
        0x00002ffc:    00000000    ....    DCD    0
        0x00003000:    00000000    ....    DCD    0
        0x00003004:    00000000    ....    DCD    0
        0x00003008:    00000000    ....    DCD    0
        0x0000300c:    40800000    ...@    DCD    1082130432
        0x00003010:    00011860    `...    DCD    71776
        0x00003014:    00000000    ....    DCD    0
        0x00003018:    00000000    ....    DCD    0
        0x0000301c:    00000000    ....    DCD    0
        0x00003020:    00000000    ....    DCD    0
        0x00003024:    00000000    ....    DCD    0
        0x00003028:    00000000    ....    DCD    0
        0x0000302c:    00000000    ....    DCD    0
        0x00003030:    00000000    ....    DCD    0
        0x00003034:    00000000    ....    DCD    0
        0x00003038:    01010000    ....    DCD    16842752
        0x0000303c:    24c00202    ...$    DCD    616563202
        0x00003040:    00040c14    ....    DCD    265236
        0x00003044:    04040400    ....    DCD    67372032
        0x00003048:    120a0e04    ....    DCD    302648836
        0x0000304c:    00402111    .!@.    DCD    4202769
        0x00003050:    00000000    ....    DCD    0
        0x00003054:    00000000    ....    DCD    0
        0x00003058:    00000000    ....    DCD    0
        0x0000305c:    00000000    ....    DCD    0
        0x00003060:    00000000    ....    DCD    0
        0x00003064:    00000000    ....    DCD    0
        0x00003068:    00000000    ....    DCD    0
        0x0000306c:    00000000    ....    DCD    0
        0x00003070:    00000000    ....    DCD    0
        0x00003074:    00000000    ....    DCD    0
        0x00003078:    00000000    ....    DCD    0
        0x0000307c:    000003f8    ....    DCD    1016
        0x00003080:    00000000    ....    DCD    0
        0x00003084:    00000000    ....    DCD    0
        0x00003088:    00000000    ....    DCD    0
        0x0000308c:    4758e080    ..XG    DCD    1197006976
        0x00003090:    80404040    @@@.    DCD    2151694400
        0x00003094:    00000000    ....    DCD    0
        0x00003098:    00000000    ....    DCD    0
        0x0000309c:    00000000    ....    DCD    0
        0x000030a0:    00000000    ....    DCD    0
        0x000030a4:    00000000    ....    DCD    0
        0x000030a8:    00000000    ....    DCD    0
        0x000030ac:    80000000    ....    DCD    2147483648
        0x000030b0:    00004040    @@..    DCD    16448
        0x000030b4:    00404000    .@@.    DCD    4210688
        0x000030b8:    040408e0    ....    DCD    67373280
        0x000030bc:    00000300    ....    DCD    768
        0x000030c0:    00000000    ....    DCD    0
        0x000030c4:    00000000    ....    DCD    0
        0x000030c8:    01000000    ....    DCD    16777216
        0x000030cc:    00000000    ....    DCD    0
        0x000030d0:    00000000    ....    DCD    0
        0x000030d4:    02020e01    ....    DCD    33689089
        0x000030d8:    1c020200    ....    DCD    469893632
        0x000030dc:    02040830    0...    DCD    33818672
        0x000030e0:    01010100    ....    DCD    16843008
        0x000030e4:    02010101    ....    DCD    33620225
        0x000030e8:    60100c02    ...`    DCD    1611664386
        0x000030ec:    0001020c    ....    DCD    66060
        0x000030f0:    00000000    ....    DCD    0
        0x000030f4:    00000000    ....    DCD    0
        0x000030f8:    00000000    ....    DCD    0
        0x000030fc:    00000000    ....    DCD    0
        0x00003100:    00000000    ....    DCD    0
        0x00003104:    00000000    ....    DCD    0
        0x00003108:    00000000    ....    DCD    0
        0x0000310c:    00000000    ....    DCD    0
        0x00003110:    00000000    ....    DCD    0
        0x00003114:    00000000    ....    DCD    0
        0x00003118:    00000000    ....    DCD    0
        0x0000311c:    00000000    ....    DCD    0
        0x00003120:    00000000    ....    DCD    0
        0x00003124:    00000000    ....    DCD    0
        0x00003128:    00000000    ....    DCD    0
        0x0000312c:    00000000    ....    DCD    0
        0x00003130:    00000000    ....    DCD    0
        0x00003134:    00000000    ....    DCD    0
        0x00003138:    00000000    ....    DCD    0
        0x0000313c:    00000000    ....    DCD    0
        0x00003140:    00000000    ....    DCD    0
    Region$$Table$$Base
        0x00003144:    00003164    d1..    DCD    12644
        0x00003148:    20000000    ...     DCD    536870912
        0x0000314c:    000008cc    ....    DCD    2252
        0x00003150:    00000bf4    ....    DCD    3060
        0x00003154:    00003a30    0:..    DCD    14896
        0x00003158:    200008cc    ...     DCD    536873164
        0x0000315c:    00000844    D...    DCD    2116
        0x00003160:    00000c04    ....    DCD    3076
    Region$$Table$$Limit

** Section #2 'ER_RW' (SHT_PROGBITS) [SHF_ALLOC + SHF_WRITE]
    Size   : 2252 bytes (alignment 4)
    Address: 0x20000000


** Section #3 'ER_ZI' (SHT_NOBITS) [SHF_ALLOC + SHF_WRITE]
    Size   : 2116 bytes (alignment 8)
    Address: 0x200008cc


** Section #4 '.debug_abbrev' (SHT_PROGBITS)
    Size   : 1476 bytes


** Section #5 '.debug_frame' (SHT_PROGBITS)
    Size   : 2084 bytes


** Section #6 '.debug_info' (SHT_PROGBITS)
    Size   : 35776 bytes


** Section #7 '.debug_line' (SHT_PROGBITS)
    Size   : 13452 bytes


** Section #8 '.debug_loc' (SHT_PROGBITS)
    Size   : 6028 bytes


** Section #9 '.debug_macinfo' (SHT_PROGBITS)
    Size   : 232264 bytes


** Section #10 '.debug_pubnames' (SHT_PROGBITS)
    Size   : 1814 bytes


** Section #11 '.symtab' (SHT_SYMTAB)
    Size   : 6880 bytes (alignment 4)
    String table #12 '.strtab'
    Last local symbol no. 251


** Section #12 '.strtab' (SHT_STRTAB)
    Size   : 5408 bytes


** Section #13 '.note' (SHT_NOTE)
    Size   : 28 bytes (alignment 4)


** Section #14 '.comment' (SHT_PROGBITS)
    Size   : 15008 bytes


** Section #15 '.shstrtab' (SHT_STRTAB)
    Size   : 156 bytes


